
apps/hv/hv_.elf:     file format elf64-littleaarch64
apps/hv/hv_.elf
architecture: aarch64, flags 0x00000112:
EXEC_P, HAS_SYMS, D_PAGED
start address 0x0000000000400000

Program Header:
    LOAD off    0x0000000000010000 vaddr 0x0000000000400000 paddr 0x0000000000400000 align 2**16
         filesz 0x000000000002e000 memsz 0x000000000002e000 flags r-x
    LOAD off    0x000000000003e000 vaddr 0x000000000042e000 paddr 0x000000000042e000 align 2**16
         filesz 0x0000000000007000 memsz 0x0000000000007000 flags r--
    LOAD off    0x0000000000045000 vaddr 0x0000000000435000 paddr 0x0000000000435000 align 2**16
         filesz 0x0000000000003000 memsz 0x0000000000003000 flags rw-
    LOAD off    0x0000000000048000 vaddr 0x0000000000438000 paddr 0x0000000000438000 align 2**16
         filesz 0x0000000000002000 memsz 0x0000000000002000 flags r--
    LOAD off    0x0000000000050000 vaddr 0x0000000000000000 paddr 0x000000000043a000 align 2**16
         filesz 0x00000000004a2000 memsz 0x00000000004a2000 flags rw-
   RELRO off    0x0000000000045000 vaddr 0x0000000000435000 paddr 0x0000000000435000 align 2**0
         filesz 0x0000000000003000 memsz 0x0000000000003000 flags r--
   STACK off    0x0000000000000000 vaddr 0x0000000000000000 paddr 0x0000000000000000 align 2**0
         filesz 0x0000000000000000 memsz 0x0000000000000000 flags rw-
private flags = 0x0:

Sections:
Idx Name          Size      VMA               LMA               File off  Algn
  0 .text         0002e000  0000000000400000  0000000000400000  00010000  2**12
                  CONTENTS, ALLOC, LOAD, READONLY, CODE
  1 .rodata       00007000  000000000042e000  000000000042e000  0003e000  2**12
                  CONTENTS, ALLOC, LOAD, READONLY, DATA
  2 .data         00003000  0000000000435000  0000000000435000  00045000  2**12
                  CONTENTS, ALLOC, LOAD, DATA
  3 .guestdata    00002000  0000000000438000  0000000000438000  00048000  2**12
                  CONTENTS, ALLOC, LOAD, READONLY, DATA
  4 .percpu       00000040  0000000000000000  000000000043a000  00050000  2**3
                  CONTENTS, ALLOC, LOAD, DATA
  5 .bss          00066000  000000000043c000  0000000000876000  00050040  2**13
                  ALLOC
  6 .guest        00000000  00000000004a2000  00000000008dc000  004f2000  2**13
                  CONTENTS, ALLOC, LOAD, DATA
  7 .debug_abbrev 0000040e  0000000000000000  0000000000000000  004f2000  2**0
                  CONTENTS, READONLY, DEBUGGING, OCTETS
  8 .debug_info   00004aba  0000000000000000  0000000000000000  004f240e  2**0
                  CONTENTS, READONLY, DEBUGGING, OCTETS
  9 .debug_aranges 00000550  0000000000000000  0000000000000000  004f6ec8  2**0
                  CONTENTS, READONLY, DEBUGGING, OCTETS
 10 .debug_ranges 00002f00  0000000000000000  0000000000000000  004f7418  2**0
                  CONTENTS, READONLY, DEBUGGING, OCTETS
 11 .debug_str    0000a22d  0000000000000000  0000000000000000  004fa318  2**0
                  CONTENTS, READONLY, DEBUGGING, OCTETS
 12 .debug_pubnames 000033e7  0000000000000000  0000000000000000  00504545  2**0
                  CONTENTS, READONLY, DEBUGGING, OCTETS
 13 .debug_pubtypes 0000007e  0000000000000000  0000000000000000  0050792c  2**0
                  CONTENTS, READONLY, DEBUGGING, OCTETS
 14 .debug_frame  000028a8  0000000000000000  0000000000000000  005079b0  2**3
                  CONTENTS, READONLY, DEBUGGING, OCTETS
 15 .debug_line   00003054  0000000000000000  0000000000000000  0050a258  2**0
                  CONTENTS, READONLY, DEBUGGING, OCTETS
SYMBOL TABLE:
0000000000000000 l    df *ABS*	0000000000000000 arceos_hv.1984414de2b1e797-cgu.2
0000000000401f84 l       .text	0000000000000000 handle_el1t_64_sync
0000000000401ff0 l       .text	0000000000000000 handle_el1t_64_irq
000000000040205c l       .text	0000000000000000 handle_el1t_64_fiq
00000000004020c8 l       .text	0000000000000000 handle_el1t_64_error
0000000000402134 l       .text	0000000000000000 handle_el1h_64_sync
00000000004021a0 l       .text	0000000000000000 handle_el1h_64_irq
000000000040220c l       .text	0000000000000000 handle_el1h_64_fiq
0000000000402278 l       .text	0000000000000000 handle_el1h_64_error
00000000004022e4 l       .text	0000000000000000 handle_el0t_64_sync
00000000004023d0 l       .text	0000000000000000 handle_el0t_64_irq
00000000004024bc l       .text	0000000000000000 handle_el0t_64_fiq
00000000004025a8 l       .text	0000000000000000 handle_el0t_64_error
0000000000402694 l       .text	0000000000000000 handle_el0t_32_sync
0000000000402780 l       .text	0000000000000000 handle_el0t_32_irq
000000000040286c l       .text	0000000000000000 handle_el0t_32_fiq
0000000000402958 l       .text	0000000000000000 handle_el0t_32_error
0000000000402b5c l     F .text	0000000000000088 _ZN10hypercraft4arch11vcpus_array19VcpusArray$LT$H$GT$3new17hd306597bbd773ee1E
00000000004083f4 l     F .text	0000000000000440 _ZN7axalloc15GlobalAllocator5alloc17h8f644e423ee6a768E
000000000042c878 l     F .text	0000000000000008 __rust_alloc_error_handler
0000000000402be4 l     F .text	00000000000001d8 _ZN10hypercraft4arch3cpu15PerCpu$LT$H$GT$11create_vcpu17hfd7f3730d85f6220E
00000000004032c0 l     F .text	0000000000000088 _ZN5alloc11collections9vec_deque21VecDeque$LT$T$C$A$GT$4grow17h08d7cefe07e6dd26E
0000000000402dbc l     F .text	00000000000001a8 _ZN42_$LT$$RF$T$u20$as$u20$core..fmt..Debug$GT$3fmt17hf73d5d2794dd4ce8E
0000000000427ce4 l     F .text	00000000000002e0 _ZN4core3fmt9Formatter12pad_integral17h7bce63ec766e5eeeE
0000000000427ae0 l     F .text	000000000000004c _ZN4core5slice5index26slice_start_index_len_fail17h36fca5bfd6ef1204E
0000000000402f64 l     F .text	0000000000000268 _ZN4core5array69_$LT$impl$u20$core..fmt..Debug$u20$for$u20$$u5b$T$u3b$$u20$N$u5d$$GT$3fmt17h9eb4ecf3e91004d8E
0000000000429630 l     F .text	0000000000000138 _ZN4core3fmt8builders8DebugSet5entry17hc9ac70a2e6d2a1aaE
00000000004031cc l     F .text	00000000000000f4 _ZN4spin4once17Once$LT$T$C$R$GT$18try_call_once_slow17hd27f34a5bc06dd2cE
00000000004285b8 l     F .text	0000000000000034 _ZN4core9panicking5panic17h7622c9da94764cc6E
0000000000407594 l     F .text	00000000000000d4 _ZN5alloc7raw_vec19RawVec$LT$T$C$A$GT$16reserve_for_push17h4c7b7e5bb82bf434E
0000000000403348 l     F .text	0000000000000050 _ZN77_$LT$arrayvec..errors..CapacityError$LT$T$GT$$u20$as$u20$core..fmt..Debug$GT$3fmt17h86fd338ec59248e4E
0000000000422e60 l     F .text	0000000000000010 _ZN44_$LT$$RF$T$u20$as$u20$core..fmt..Display$GT$3fmt17h028168b546b8445cE
00000000004286e8 l     F .text	0000000000000228 _ZN4core3fmt5write17had491e6ceb88f3c5E
0000000000403398 l     F .text	0000000000000038 _ZN5alloc7raw_vec17capacity_overflow17h0a75521a8af5d283E
0000000000427a8c l     F .text	0000000000000030 _ZN4core9panicking9panic_fmt17hb834418528aaaa5dE
00000000004033d0 l     F .text	0000000000000040 __rdl_oom
0000000000427b78 l     F .text	000000000000016c _ZN4core3fmt3num3imp52_$LT$impl$u20$core..fmt..Display$u20$for$u20$u64$GT$3fmt17hb9355a591539ed06E
0000000000429558 l     F .text	0000000000000008 _ZN4core9panicking18panic_nounwind_fmt17h5e9973ea1aec1188E
0000000000403410 l     F .text	0000000000000120 _ZN79_$LT$allocator..tlsf..TlsfByteAllocator$u20$as$u20$allocator..BaseAllocator$GT$10add_memory17h40f02a8f72260e74E
0000000000403530 l     F .text	00000000000001e8 _ZN79_$LT$allocator..tlsf..TlsfByteAllocator$u20$as$u20$allocator..ByteAllocator$GT$7dealloc17ha19d402839ba8d1fE
000000000047e000 l     O .bss	0000000000023ec8 _ZN7axalloc16GLOBAL_ALLOCATOR17h04b3423754977f4bE
0000000000403718 l     F .text	00000000000001e8 _ZN4core5slice4sort8heapsort17h31adcd998f998861E
0000000000427b2c l     F .text	000000000000004c _ZN4core9panicking18panic_bounds_check17h7a5004348664dd7fE
0000000000403900 l     F .text	0000000000000124 _ZN4core5slice4sort14break_patterns17hb9fbede4de27f97dE
0000000000403a24 l     F .text	000000000000043c _ZN4core5slice4sort22partial_insertion_sort17h4abe46d4340bd3b8E
0000000000403e60 l     F .text	00000000000000b4 _ZN4core5slice4sort25insertion_sort_shift_left17hb9e4089ee7332f03E
0000000000403f14 l     F .text	0000000000000070 _ZN4core5slice4sort26insertion_sort_shift_right17h6933c91a9dd2be46E
0000000000403f84 l     F .text	0000000000000814 _ZN4core5slice4sort7recurse17h42b981fe64c334b9E
0000000000428b68 l     F .text	000000000000004c _ZN4core5slice5index22slice_index_order_fail17hb50a06e91217f453E
0000000000428048 l     F .text	000000000000004c _ZN4core5slice5index24slice_end_index_len_fail17h34d84eb9d2f473b0E
0000000000427a4c l     F .text	0000000000000034 _ZN53_$LT$axerrno..AxError$u20$as$u20$core..fmt..Debug$GT$3fmt17h1b7d2a4233ef4e65E.762
000000000042d114 l     F .text	000000000000009c _ZN3log17__private_api_log17h7f29abf710eff511E
0000000000429290 l     F .text	0000000000000058 _ZN4core6result13unwrap_failed17h4ccb29953da6c6f0E
0000000000438000 l     O .guestdata	0000000000001d62 _ZN9arceos_hv10NIMBOS_DTB17habe9c3a520f0d333E
0000000000434668 l     O .rodata	0000000000000000 _ZN3log6logger3NOP17h11948bda88406911E
0000000000429594 l     F .text	000000000000009c _ZN4core3fmt3num53_$LT$impl$u20$core..fmt..LowerHex$u20$for$u20$i64$GT$3fmt17hb75d8fb858ad3968E
0000000000408870 l     F .text	0000000000000808 _ZN92_$LT$allocator..bitmap..BitmapPageAllocator$LT$_$GT$$u20$as$u20$allocator..PageAllocator$GT$11alloc_pages17hc2599d2b3a79021dE
000000000042ba20 l     F .text	0000000000000304 _ZN3fdt9FdtHeader10from_bytes17h5066f543f73c8c89E
0000000000409240 l     F .text	0000000000000118 _ZN68_$LT$axhal..paging..PagingIfImpl$u20$as$u20$page_table..PagingIf$GT$13dealloc_frame17hd53d8a39188437b3E
000000000042bd24 l     F .text	0000000000000288 _ZN3fdt3Fdt9find_node17hacfb86d9ea324da2E
0000000000429514 l     F .text	0000000000000044 _ZN4core6option13expect_failed17h93cfb0d412ad27a8E
000000000042ac2c l     F .text	00000000000002fc _ZN3fdt4node7FdtNode3reg17hdeead877dd426ac5E
000000000042bfac l     F .text	0000000000000404 _ZN3fdt3Fdt14find_all_nodes17h3349ca65f6b81467E
0000000000407668 l     F .text	00000000000003d8 _ZN3fdt3Fdt14find_all_nodes28_$u7b$$u7b$closure$u7d$$u7d$17h1a8eb7ee3fdb2bb0E
0000000000420be8 l     F .text	0000000000000514 _ZN90_$LT$axruntime..gpm..GuestPageTable$u20$as$u20$hypercraft..memory..GuestPageTableTrait$GT$10map_region17hb9a9c44ed59ab456E
0000000000407554 l     F .text	0000000000000040 _ZN5alloc7raw_vec19RawVec$LT$T$C$A$GT$11allocate_in17h3db140487a8af40cE
0000000000422e70 l     F .text	00000000000000e4 _ZN52_$LT$$BP$const$u20$T$u20$as$u20$core..fmt..Debug$GT$3fmt17h3d7fa58bbf8b1264E
0000000000425f98 l     F .text	0000000000000224 _ZN9axruntime2hv6kernel8vm_array6add_vm17hf8a0524b015bb6d2E
0000000000424590 l     F .text	000000000000011c _ZN9axruntime2hv6kernel8vm_array11add_vm_vcpu17heb1aa1752ee78bd3E
00000000004246ac l     F .text	00000000000001a0 _ZN9axruntime2hv6kernel8vm_array12init_vm_vcpu17h30b97ec3ca7cbc3eE
000000000042484c l     F .text	0000000000000f70 _ZN9axruntime2hv6kernel8vm_array18init_vm_emu_device17h4f2f281825d6b336E
00000000004257bc l     F .text	00000000000007dc _ZN9axruntime2hv6kernel8vm_array26init_vm_passthrough_device17h67c644df04633de2E
00000000004261bc l     F .text	00000000000001a4 _ZN9axruntime2hv6kernel8vm_array11run_vm_vcpu17hb8fc76e43ce5f9b6E
0000000000407524 l     F .text	0000000000000030 _ZN59_$LT$hypercraft..HyperError$u20$as$u20$core..fmt..Debug$GT$3fmt17hdd91ca0a2e84c02bE
00000000004185ac l     F .text	00000000000000f0 _ZN5alloc7raw_vec11finish_grow17h992cee18e3b41752E
0000000000428bb4 l     F .text	0000000000000278 _ZN4core3str8converts9from_utf817hfc2a1fe0cb6cd765E
000000000042b70c l     F .text	0000000000000314 _ZN3fdt4node17skip_current_node17hd3507e427bee3678E
0000000000407a40 l     F .text	0000000000000004 _ZN4core3ptr34drop_in_place$LT$fdt..FdtError$GT$17h19dbeb43ca196b6aE
0000000000407a44 l     F .text	0000000000000030 _ZN50_$LT$fdt..FdtError$u20$as$u20$core..fmt..Debug$GT$3fmt17h4b923b53ee80e1e3E
0000000000407a74 l     F .text	0000000000000130 _ZN9arm_gicv314GicDistributor10set_enable17h5ccef0102fbf0248E
0000000000407dfc l     F .text	00000000000005c8 _ZN5alloc11collections5btree3map25BTreeMap$LT$K$C$V$C$A$GT$6insert17hb590b61fe983767bE
0000000000407ba4 l     F .text	0000000000000180 _ZN9arm_gicv316GicRedistributor10set_enable17hb18175317f27461dE
0000000000407d24 l     F .text	00000000000000d8 _ZN9arm_gicv322GicHypervisorInterface6set_lr17h57b561ddf07285f6E
0000000000408834 l     F .text	000000000000003c __rust_alloc
00000000004083c4 l     F .text	0000000000000030 _ZN58_$LT$allocator..AllocError$u20$as$u20$core..fmt..Debug$GT$3fmt17hb38875872d5d85a1E
0000000000409078 l     F .text	00000000000001c8 _ZN5axhal8platform14aarch64_common4psci10system_off17heba0085c3a14d8d9E
000000000042a850 l     F .text	0000000000000184 _ZN4core3fmt3num3imp52_$LT$impl$u20$core..fmt..Display$u20$for$u20$i32$GT$3fmt17haae14e8c35c4f9e4E
0000000000409358 l     F .text	0000000000000030 _ZN73_$LT$axhal..arch..aarch64..trap..TrapKind$u20$as$u20$core..fmt..Debug$GT$3fmt17hcc995da391f1055bE
0000000000409388 l     F .text	0000000000000024 _ZN75_$LT$axhal..arch..aarch64..trap..TrapSource$u20$as$u20$core..fmt..Debug$GT$3fmt17h13c6760bebbbbd36E
000000000040a5d4 l     F .text	0000000000000030 _ZN42_$LT$$RF$T$u20$as$u20$core..fmt..Debug$GT$3fmt17h8888563b63eda816E
000000000042a728 l     F .text	000000000000008c _ZN4core3fmt3num51_$LT$impl$u20$core..fmt..Binary$u20$for$u20$i64$GT$3fmt17h6d5b723647dbdf11E
000000000040ccfc l     F .text	00000000000001f4 _ZN5axhal8platform14aarch64_common5gicv312dispatch_irq17h5cc9f173a6386d7aE
000000000040a1dc l     F .text	0000000000000030 _ZN82_$LT$axhal..arch..aarch64..hv..exception..TrapKind$u20$as$u20$core..fmt..Debug$GT$3fmt17ha04d272d06f59103E
000000000040a20c l     F .text	0000000000000024 _ZN84_$LT$axhal..arch..aarch64..hv..exception..TrapSource$u20$as$u20$core..fmt..Debug$GT$3fmt17h641e62843b28319fE
000000000040a908 l     F .text	0000000000000098 _ZN50_$LT$$RF$mut$u20$T$u20$as$u20$core..fmt..Debug$GT$3fmt17h6acc1f278e50008fE
000000000040cef0 l     F .text	0000000000000118 _ZN5axhal8platform14aarch64_common5gicv320gicc_get_current_irq17he300d77fbc12e299E
000000000040b148 l     F .text	000000000000011c _ZN5axhal4trap20handle_irq_extern_hv17h5df0a96b020cab88E
000000000040ac04 l     F .text	0000000000000010 _ZN52_$LT$$RF$mut$u20$T$u20$as$u20$core..fmt..Display$GT$3fmt17h742e00be97a184a2E
00000000004298b0 l     F .text	0000000000000188 _ZN4core3fmt9Formatter26debug_struct_field5_finish17h3b804171778aaf1aE
000000000040a604 l     F .text	00000000000000a0 _ZN45_$LT$$RF$T$u20$as$u20$core..fmt..LowerHex$GT$3fmt17h3dd974b3d1c94aa1E
000000000040a6a4 l     F .text	0000000000000264 _ZN42_$LT$$RF$T$u20$as$u20$core..fmt..Debug$GT$3fmt17h66988162b391d2b7E
0000000000429768 l     F .text	0000000000000148 _ZN4core3fmt9Formatter26debug_struct_field4_finish17h0f594c31a3f06913E
000000000040a9a0 l     F .text	0000000000000004 _ZN4core3ptr24drop_in_place$LT$u64$GT$17h638531ff04b4d6a3E
000000000040a9a4 l     F .text	0000000000000260 _ZN4core3fmt3num50_$LT$impl$u20$core..fmt..Debug$u20$for$u20$u64$GT$3fmt17h524f3ab6794da149E
000000000042c880 l     F .text	0000000000000248 _ZN91_$LT$hypercraft..arch..context_frame..Aarch64ContextFrame$u20$as$u20$core..fmt..Display$GT$3fmt17h8ebb4f0fa382bf58E
000000000040ac14 l     F .text	00000000000000c4 _ZN5axhal8platform14aarch64_common13generic_timer10init_early17h85dcef83941d03ddE
000000000040acd8 l     F .text	0000000000000370 _ZN4core5array69_$LT$impl$u20$core..fmt..Debug$u20$for$u20$$u5b$T$u3b$$u20$N$u5d$$GT$3fmt17h3de266afca361713E
000000000040b048 l     F .text	000000000000005c _ZN5axhal8platform14aarch64_common4boot16cache_invalidate17h7f110b7ea5207e90E
000000000043c000 l     O .bss	0000000000040000 _ZN5axhal8platform14aarch64_common4boot10BOOT_STACK17h64bfa16c9aa2ada8E
000000000040b2cc l     F .text	0000000000000050 _ZN5axhal8platform14aarch64_common3mem12idmap_kernel17h8b7d978177ee23b3E
000000000040b264 l     F .text	0000000000000068 _ZN5axhal8platform14aarch64_common3mem12init_mmu_el217h271d132c0508af1eE
000000000040b0a4 l     F .text	0000000000000048 _ZN5axhal8platform14aarch64_common4boot13switch_to_el217hc45f77474d8c30f6E
000000000040b144 l     F .text	0000000000000004 _ZN5axhal8platform14aarch64_common11dw_apb_uart6handle17he45ed9091d2f0eb5E
000000000040b0ec l     F .text	0000000000000058 _ZN5axhal8platform14aarch64_common11dw_apb_uart7putchar17h7695ec14f54898a0E
0000000000436000 l     O .data	0000000000001000 _ZN5axhal8platform14aarch64_common3mem10BOOT_PT_L117h44c9e2bdd51270a7E
0000000000435000 l     O .data	0000000000001000 _ZN5axhal8platform14aarch64_common3mem10BOOT_PT_L017ha6dc0c0814b3146eE
000000000040b31c l     F .text	0000000000000414 _ZN67_$LT$axhal..mem_map..MemRegionFlags$u20$as$u20$core..fmt..Debug$GT$3fmt17h41db3d88cf3b4c77E
000000000040b730 l     F .text	00000000000010f0 _ZN5axhal7mem_map14memory_regions17h707173a4aa0929d8E
000000000042d288 l     F .text	00000000000001f8 _ZN62_$LT$of..MY_MACHINE_FDT$u20$as$u20$core..ops..deref..Deref$GT$5deref17h363476ec145b1678E
000000000042a9d4 l     F .text	0000000000000258 _ZN3fdt4node12NodeProperty5parse17h579c19296f3bdf7dE
000000000040c820 l     F .text	00000000000004dc _ZN5axhal8platform14aarch64_common5gicv316register_handler17h162d69847659bfd4E
000000000047c000 l     O .bss	0000000000002000 _ZN5axhal3irq17IRQ_HANDLER_TABLE17hd4d776bdec725f31E
000000000042a68c l     F .text	000000000000009c _ZN4core3fmt3num53_$LT$impl$u20$core..fmt..LowerHex$u20$for$u20$i32$GT$3fmt17hc64da2d43825dbe3E
000000000040d008 l     F .text	0000000000000800 _ZN5axhal8platform14aarch64_common10rust_entry17h9c8a78f53b3178d9E
000000000040d808 l     F .text	0000000000000060 _ZN50_$LT$axlog..Logger$u20$as$u20$core..fmt..Write$GT$9write_str17hf4c11938efb1fe05E
000000000040d868 l     F .text	0000000000000280 _ZN42_$LT$axlog..Logger$u20$as$u20$log..Log$GT$3log17h178c9396ed333d28E
000000000040dae8 l     F .text	000000000000000c _ZN44_$LT$$RF$T$u20$as$u20$core..fmt..Display$GT$3fmt17h2bfcfee5adc9760aE
00000000004292e8 l     F .text	00000000000000c0 _ZN4core3fmt3num3imp51_$LT$impl$u20$core..fmt..Display$u20$for$u20$u8$GT$3fmt17h4b5c426dff92061fE
00000000004293a8 l     F .text	000000000000016c _ZN4core3fmt3num3imp52_$LT$impl$u20$core..fmt..Display$u20$for$u20$u32$GT$3fmt17h2c85c966193ac310E
00000000004286dc l     F .text	000000000000000c _ZN59_$LT$core..fmt..Arguments$u20$as$u20$core..fmt..Display$GT$3fmt17hfad471350ce68425E
000000000040daf4 l     F .text	0000000000000018 _ZN53_$LT$core..fmt..Error$u20$as$u20$core..fmt..Debug$GT$3fmt17h8785d65363bfa941E.189
000000000040db0c l     F .text	0000000000000228 _ZN4core3fmt5Write10write_char17hba17f5ad12893833E
000000000040dd34 l     F .text	0000000000000010 _ZN4core3fmt5Write9write_fmt17h0cd890f65c4b2328E
000000000040dd44 l     F .text	0000000000000030 _ZN56_$LT$log..SetLoggerError$u20$as$u20$core..fmt..Debug$GT$3fmt17h43e25fa76d5ba83cE
000000000040dd74 l     F .text	0000000000000014 _ZN42_$LT$$RF$T$u20$as$u20$core..fmt..Debug$GT$3fmt17hb91a9013eb04f182E
0000000000429a38 l     F .text	000000000000013c _ZN4core3fmt9Formatter25debug_tuple_field1_finish17hd1ade053fed355bcE
0000000000428094 l     F .text	0000000000000524 _ZN4core3fmt9Formatter3pad17hd8dd3efde1c91e3fE
000000000040dd88 l     F .text	0000000000000008 _ZN42_$LT$axlog..Logger$u20$as$u20$log..Log$GT$7enabled17hc3bd9a4fa1929942E
000000000040dd90 l     F .text	0000000000000004 _ZN42_$LT$axlog..Logger$u20$as$u20$log..Log$GT$5flush17h3d694f2b9c72fcb8E
000000000040dd94 l     F .text	0000000000000934 _ZN9axruntime2hv6kernel6vgicv38set_pend17h51511dab6182c319E
000000000041040c l     F .text	00000000000005fc _ZN9axruntime2hv6kernel6vgicv39remove_lr17h5f940f5e4337b068E
000000000042cac8 l     F .text	000000000000036c _ZN10hypercraft4arch5gicv313gic_set_state17h644037b38e41e43cE
000000000040f2e8 l     F .text	00000000000003fc _ZN9axruntime2hv6kernel6vgicv35route17h1d0e6c680d4c540cE
0000000000410a08 l     F .text	00000000000001a0 _ZN9axruntime2hv6kernel6vgicv320vgic_int_yield_owner17hd0182387077dd159E
00000000004277cc l     F .text	0000000000000048 _ZN5alloc4sync16Arc$LT$T$C$A$GT$9drop_slow17h70176e216c054676E
0000000000427814 l     F .text	0000000000000048 _ZN5alloc4sync16Arc$LT$T$C$A$GT$9drop_slow17h8dc79260d9823611E
000000000040e6c8 l     F .text	0000000000000c20 _ZN9axruntime2hv6kernel6vgicv315update_int_list17hfc91c4acf6c850ceE
0000000000411c18 l     F .text	0000000000000564 _ZN9axruntime2hv6kernel6vgicv315remove_int_list17h55839b771eb04335E
00000000004119d8 l     F .text	0000000000000240 _ZN9axruntime2hv6kernel6vgicv312add_int_list17hdbb4cbfd529df8e2E
000000000040f6e4 l     F .text	0000000000000d28 _ZN9axruntime2hv6kernel6vgicv36add_lr17hacfbe1bbcb93cbbaE
0000000000410ba8 l     F .text	0000000000000210 _ZN9axruntime2hv6kernel6vgicv314vgic_get_state17h9f4ec2ce52ad57dfE
0000000000423d8c l     F .text	00000000000000a4 _ZN10hypercraft4arch6vgicv317Vgic$LT$H$C$G$GT$15vgicd_interrupt17h4b2d0eb29c352d4cE
0000000000423e30 l     F .text	000000000000004c _ZN10hypercraft4arch6vgicv320VgicInt$LT$H$C$G$GT$2id17h549872be585b41c9E
0000000000410db8 l     F .text	00000000000007b0 _ZN9axruntime2hv6kernel6vgicv38write_lr17ha97255474dabd930E
0000000000411568 l     F .text	000000000000013c _ZN9axruntime2hv6kernel6vgicv39vgic_owns17hfb0b75b23d90a703E
00000000004116a4 l     F .text	0000000000000334 _ZN9axruntime2hv6kernel6vgicv311gich_get_lr17h4efba957f045776aE
0000000000423e7c l     F .text	00000000000002f0 _ZN10hypercraft4arch6vgicv320VgicInt$LT$H$C$G$GT$5owner17h975bf637b0428010E
00000000004232a0 l     F .text	0000000000000088 _ZN5alloc11collections9vec_deque21VecDeque$LT$T$C$A$GT$4grow17h6ddb1a1dfeddb14cE
0000000000422f54 l     F .text	000000000000034c _ZN5alloc11collections9vec_deque21VecDeque$LT$T$C$A$GT$6remove17h89f0e0d45337bd65E
000000000041217c l     F .text	00000000000006e0 _ZN9axruntime2hv6kernel6vgicv320emu_isenabler_access17he77d761981c62c6fE
00000000004229a4 l     F .text	0000000000000160 _ZN9axruntime2hv6kernel12active_vm_id17hb12a47be9fa8249aE
0000000000422848 l     F .text	000000000000015c _ZN9axruntime2hv6kernel9active_vm17ha3eb8f8a60318c70E
0000000000412a90 l     F .text	0000000000000ad4 _ZN9axruntime2hv6kernel6vgicv310set_enable17h61b0bd817a75f913E
000000000041285c l     F .text	0000000000000234 _ZN9axruntime2hv6kernel6vgicv310get_enable17h6268b710e527d742E
0000000000413564 l     F .text	00000000000008dc _ZN9axruntime2hv6kernel6vgicv320emu_icenabler_access17hc9b557f33335d098E
000000000041d9f0 l     F .text	0000000000000068 _ZN10hypercraft4arch2vm15VM$LT$H$C$G$GT$13has_interrupt17hff4601c289eca15bE
0000000000413e40 l     F .text	0000000000000778 _ZN9axruntime2hv6kernel6vgicv316emu_pendr_access17hb07ca0a62475fabdE
00000000004145b8 l     F .text	0000000000000f90 _ZN9axruntime2hv6kernel6vgicv318emu_activer_access17h24d9a039424511bdE
0000000000415548 l     F .text	0000000000000f58 _ZN9axruntime2hv6kernel6vgicv316emu_icfgr_access17h66060a2832af0179E
00000000004164a0 l     F .text	0000000000001184 _ZN9axruntime2hv6kernel6vgicv321emu_ipriorityr_access17ha158d4914a9ddd14E
0000000000417624 l     F .text	00000000000000ec _ZN9axruntime2hv6kernel6vgicv39emu_razwi17h7e7b90c5d6285120E
0000000000417710 l     F .text	0000000000000c88 _ZN9axruntime2hv6kernel6vgicv318emu_irouter_access17h7d52275b3ac4951fE
0000000000418398 l     F .text	000000000000012c _ZN9axruntime2hv6kernel6vgicv315emu_pidr_access17h032c21b4f13b8eb2E
00000000004184c4 l     F .text	00000000000000e8 _ZN5alloc7raw_vec19RawVec$LT$T$C$A$GT$16reserve_for_push17h0690284203ee22a9E
000000000041869c l     F .text	00000000000000e4 _ZN5alloc7raw_vec19RawVec$LT$T$C$A$GT$16reserve_for_push17h2bc8b2004ec007a1E
0000000000418780 l     F .text	00000000000000c8 _ZN5alloc7raw_vec19RawVec$LT$T$C$A$GT$16reserve_for_push17h9c0857a06470bbf5E
0000000000418848 l     F .text	00000000000000e0 _ZN5alloc7raw_vec19RawVec$LT$T$C$A$GT$16reserve_for_push17hbf12be7d716829f1E
0000000000418928 l     F .text	00000000000000d4 _ZN5alloc7raw_vec19RawVec$LT$T$C$A$GT$16reserve_for_push17hd4cc05e60cdfd84fE
00000000004189fc l     F .text	00000000000000e8 _ZN5alloc7raw_vec19RawVec$LT$T$C$A$GT$16reserve_for_push17hd69caf5e78fdc883E
0000000000418ae4 l     F .text	00000000000000c4 _ZN5alloc7raw_vec19RawVec$LT$T$C$A$GT$16reserve_for_push17hd929ba8105bef31aE
0000000000418ba8 l     F .text	00000000000000d4 _ZN5alloc7raw_vec19RawVec$LT$T$C$A$GT$16reserve_for_push17hed7264f37ef02e63E
0000000000418c7c l     F .text	00000000000000d4 _ZN5alloc7raw_vec19RawVec$LT$T$C$A$GT$16reserve_for_push17hed76bc57c74a460dE
0000000000418d50 l     F .text	00000000000000e8 _ZN5alloc7raw_vec19RawVec$LT$T$C$A$GT$7reserve21do_reserve_and_handle17h4df2e79fc52a7b58E
0000000000418e38 l     F .text	00000000000008ac _ZN9axruntime2hv6kernel15emuintc_handler16emu_intc_handler17hc7fde87eec939b63E
0000000000429b74 l     F .text	000000000000002c _ZN43_$LT$bool$u20$as$u20$core..fmt..Display$GT$3fmt17ha8ca08632f77bfb9E
0000000000427510 l     F .text	00000000000002bc _ZN5alloc4sync16Arc$LT$T$C$A$GT$9drop_slow17h5e88896a1b5e3998E
00000000004196e4 l     F .text	00000000000029e4 _ZN9axruntime2hv6kernel15emuintc_handler23gic_maintenance_handler17h7c935b2395d49297E
000000000042cff0 l     F .text	0000000000000118 _ZN10hypercraft4arch5utils4util15bitmap_find_nth17hf0cd0c24d93f844eE
00000000004243d8 l     F .text	00000000000001b8 _ZN109_$LT$alloc..collections..vec_deque..iter..Iter$LT$T$GT$$u20$as$u20$core..iter..traits..iterator..Iterator$GT$4fold17hfb980d4eb132df16E
000000000041c0c8 l     F .text	0000000000000a10 _ZN9axruntime2hv6kernel15emuintc_handler18emul_vgicr_handler17ha1f27d5e8d8c5c45E
000000000041cad8 l     F .text	0000000000000cfc _ZN114_$LT$core..iter..adapters..flatten..FlatMap$LT$I$C$U$C$F$GT$$u20$as$u20$core..iter..traits..iterator..Iterator$GT$4next17h4846e7e4a4c53395E
000000000041d7d4 l     F .text	0000000000000030 _ZN59_$LT$hypercraft..HyperError$u20$as$u20$core..fmt..Debug$GT$3fmt17hdd91ca0a2e84c02bE.450
000000000041d804 l     F .text	00000000000001ec _ZN10hypercraft4arch2vm15VM$LT$H$C$G$GT$12set_emu_devs17h3a40186dc2d0d240E
000000000041da58 l     F .text	00000000000001fc _ZN10hypercraft4arch2vm15VM$LT$H$C$G$GT$3run17h998736d8e3be306fE
000000000042a7b4 l     F .text	000000000000009c _ZN4core3fmt3num53_$LT$impl$u20$core..fmt..UpperHex$u20$for$u20$i64$GT$3fmt17ha8adebe2934e76c2E
0000000000423474 l     F .text	0000000000000020 _ZN10hypercraft4arch4vcpu13VCpu$LT$H$GT$3run17h48a3bba63aca35a2E
000000000041dc54 l     F .text	00000000000000c8 _ZN65_$LT$alloc..vec..Vec$LT$T$C$A$GT$$u20$as$u20$core..fmt..Debug$GT$3fmt17h7c65920a3d015228E
0000000000423494 l     F .text	0000000000000114 _ZN42_$LT$$RF$T$u20$as$u20$core..fmt..Debug$GT$3fmt17h5681f7cba8f4809dE
000000000042d1b0 l     F .text	000000000000006c _ZN58_$LT$memory_addr..PhysAddr$u20$as$u20$core..fmt..Debug$GT$3fmt17hf92bfcbbf416f57bE
00000000004236b8 l     F .text	00000000000004f0 _ZN9axruntime2hv6kernel3ipi15ipi_irq_handler17hed9d7f1322f761deE
000000000042195c l     F .text	000000000000032c _ZN9axruntime2hv6kernel10guest_psci16psci_ipi_handler17hc6911dbab1a70422E
0000000000420a14 l     F .text	0000000000000030 _ZN58_$LT$allocator..AllocError$u20$as$u20$core..fmt..Debug$GT$3fmt17hb38875872d5d85a1E.467
0000000000420a44 l     F .text	0000000000000068 _ZN57_$LT$page_table..PageSize$u20$as$u20$core..fmt..Debug$GT$3fmt17hd99d381953938e7aE
0000000000420aac l     F .text	0000000000000034 _ZN42_$LT$$RF$T$u20$as$u20$core..fmt..Debug$GT$3fmt17h96dcf202ec46c759E
0000000000420ae0 l     F .text	00000000000000d8 rust_begin_unwind
0000000000424270 l     F .text	0000000000000168 _ZN44_$LT$$RF$T$u20$as$u20$core..fmt..Display$GT$3fmt17h1916339b61845bcaE
0000000000420bb8 l     F .text	0000000000000030 _ZN60_$LT$page_table..PagingError$u20$as$u20$core..fmt..Debug$GT$3fmt17h1d5030710b2a073cE
000000000042d21c l     F .text	000000000000006c _ZN58_$LT$memory_addr..VirtAddr$u20$as$u20$core..fmt..Debug$GT$3fmt17hee32d5007fcf3062E
00000000004210fc l     F .text	0000000000000820 _ZN9axruntime2hv6kernel10guest_psci17smc_guest_handler17h34bf7e01f01965feE
000000000042191c l     F .text	0000000000000028 _ZN9axruntime2hv6kernel10guest_psci8smc_call17h3b38c2138dd3b8b9E
0000000000421944 l     F .text	0000000000000004 _ZN4core3ptr29drop_in_place$LT$$LP$$RP$$GT$17h5d75c08092c4cb28E
0000000000421948 l     F .text	0000000000000014 _ZN45_$LT$$LP$$RP$$u20$as$u20$core..fmt..Debug$GT$3fmt17h48f05ebcbf612584E.505
00000000004227dc l     F .text	000000000000006c _ZN9axruntime2hv6kernel11current_cpu17h0e0df284d1adfdcdE
0000000000421c88 l     F .text	00000000000000f8 _ZN9axruntime2hv6kernel14emureg_handler20vgic_icc_sre_handler17h00a24ec2f219cc39E
0000000000422b04 l     F .text	000000000000035c _ZN42_$LT$$RF$T$u20$as$u20$core..fmt..Debug$GT$3fmt17hab07e9d76084d468E
0000000000429ba0 l     F .text	0000000000000464 _ZN4core4char7methods22_$LT$impl$u20$char$GT$16escape_debug_ext17hb18c76c8dc879ea2E
000000000042a004 l     F .text	0000000000000008 _ZN4core3str16slice_error_fail17h925923b623bd8691E
0000000000423328 l     F .text	000000000000014c _ZN94_$LT$alloc..collections..vec_deque..VecDeque$LT$T$C$A$GT$$u20$as$u20$core..ops..drop..Drop$GT$4drop17hb4eece3ebb847f72E
0000000000428e2c l     F .text	00000000000001b8 _ZN4core3fmt8builders11DebugStruct5field17h7f710f8f3aa370bdE
00000000004235a8 l     F .text	0000000000000030 _ZN42_$LT$$RF$T$u20$as$u20$core..fmt..Debug$GT$3fmt17h62ab3e36307aaea9E
00000000004235d8 l     F .text	0000000000000098 _ZN42_$LT$$RF$T$u20$as$u20$core..fmt..Debug$GT$3fmt17h0f64711d9d1e8105E
0000000000423670 l     F .text	0000000000000030 _ZN75_$LT$axruntime..hv..kernel..ipi..PowerEvent$u20$as$u20$core..fmt..Debug$GT$3fmt17h85a20199ef4ca73cE
00000000004236a0 l     F .text	0000000000000018 _ZN72_$LT$axruntime..hv..kernel..ipi..IpiType$u20$as$u20$core..fmt..Debug$GT$3fmt17h40bb168c84c7eaebE
0000000000423ba8 l     F .text	00000000000001e4 _ZN9axruntime2hv6kernel3emu16emu_register_dev17hb212948ec77dc892E
000000000042416c l     F .text	0000000000000104 _ZN10hypercraft4arch6vgicv320VgicInt$LT$H$C$G$GT$8priv_new17ha3137ba5c0fb1472E
000000000042785c l     F .text	0000000000000048 _ZN5alloc4sync16Arc$LT$T$C$A$GT$9drop_slow17he871dbec119f986dE
00000000004278a4 l     F .text	000000000000010c _ZN4core3fmt5Write10write_char17hccded4eb3698d231E
00000000004279ec l     F .text	0000000000000060 _ZN4axio5Write9write_all17h3497af6d1506ce6eE
00000000004279b0 l     F .text	0000000000000010 _ZN4core3fmt5Write9write_fmt17hc56213a9d864a951E
00000000004279c0 l     F .text	000000000000002c _ZN77_$LT$axio..Write..write_fmt..Adapter$LT$T$GT$$u20$as$u20$core..fmt..Write$GT$9write_str17h72b0abf5e04ea32cE
0000000000427a80 l     F .text	0000000000000004 _ZN4core3ptr37drop_in_place$LT$axerrno..AxError$GT$17hb56e58eff2dc5320E
0000000000427a84 l     F .text	0000000000000008 _ZN4core3ops8function6FnOnce9call_once17h865e97699dca0ca4E
0000000000427abc l     F .text	0000000000000024 _ZN36_$LT$T$u20$as$u20$core..any..Any$GT$7type_id17h461ffdc9e33d2abbE
0000000000427fc4 l     F .text	0000000000000084 _ZN4core3fmt9Formatter12pad_integral12write_prefix17hdf089fa1265f84fbE
00000000004285ec l     F .text	00000000000000e4 _ZN4core9panicking19assert_failed_inner17h6425a04e4cacc472E
00000000004286d0 l     F .text	000000000000000c _ZN42_$LT$$RF$T$u20$as$u20$core..fmt..Debug$GT$3fmt17h7be275241176dcd8E
0000000000428910 l     F .text	0000000000000258 _ZN4core3fmt3num52_$LT$impl$u20$core..fmt..Debug$u20$for$u20$usize$GT$3fmt17h3029622a86ef1588E.811
0000000000428fe4 l     F .text	0000000000000224 _ZN68_$LT$core..fmt..builders..PadAdapter$u20$as$u20$core..fmt..Write$GT$9write_str17h024ddec91fa2e99aE
0000000000429208 l     F .text	0000000000000078 _ZN68_$LT$core..fmt..builders..PadAdapter$u20$as$u20$core..fmt..Write$GT$10write_char17h8469489b4033d467E
0000000000429280 l     F .text	0000000000000010 _ZN4core3fmt5Write9write_fmt17hfe996d61a78d5eecE
0000000000429560 l     F .text	0000000000000034 _ZN4core9panicking18panic_nounwind_fmt7runtime17h5992ddfae2cbc03eE
0000000000433bb8 l     O .rodata	0000000000000084 _ZN4core7unicode12unicode_data15grapheme_extend17SHORT_OFFSET_RUNS17h193d0185a8be87ecE
0000000000433c3c l     O .rodata	00000000000002d7 _ZN4core7unicode12unicode_data15grapheme_extend7OFFSETS17h7af8ccc2b809066cE
000000000042a570 l     F .text	000000000000011c _ZN4core7unicode9printable5check17h288764740da6ab35E
000000000042a00c l     F .text	0000000000000390 _ZN4core3str19slice_error_fail_rt17h6661abb6ff3a48bcE
000000000042a39c l     F .text	0000000000000158 _ZN41_$LT$char$u20$as$u20$core..fmt..Debug$GT$3fmt17h9a6e37cb8e3981f3E
000000000042a4f4 l     F .text	000000000000007c _ZN71_$LT$core..ops..range..Range$LT$Idx$GT$$u20$as$u20$core..fmt..Debug$GT$3fmt17h98af125c1ef3ceaaE
000000000042af28 l     F .text	00000000000005d8 _ZN3fdt4node9find_node17hd594ecda55bc26dbE
000000000042b500 l     F .text	000000000000020c _ZN4core3str4iter22SplitInternal$LT$P$GT$4next17h287df1f0ca2824b2E
000000000042c600 l     F .text	0000000000000014 _ZN4core9panicking13assert_failed17h37c78275729494abE
000000000042c3b0 l     F .text	0000000000000250 _ZN4core3str4iter22SplitInternal$LT$P$GT$9next_back17h17bf685d2f5e98acE
000000000042c614 l     F .text	0000000000000264 _ZN42_$LT$$RF$T$u20$as$u20$core..fmt..Debug$GT$3fmt17h66547fdceb36fbd9E
000000000042d108 l     F .text	0000000000000008 _ZN43_$LT$log..NopLogger$u20$as$u20$log..Log$GT$7enabled17hf5d3d7ae98fbb44bE
000000000042d110 l     F .text	0000000000000004 _ZN43_$LT$log..NopLogger$u20$as$u20$log..Log$GT$3log17hb76a3c8133d72de0E
000000000042d480 l     F .text	0000000000000030 _ZN50_$LT$fdt..FdtError$u20$as$u20$core..fmt..Debug$GT$3fmt17h4b923b53ee80e1e3E.1089
0000000000437000 l     O .data	0000000000000008 _ZN3log6LOGGER17hab630ad04d1f5aabE.1
0000000000437008 l     O .data	0000000000000020 _ZN9axruntime2hv6kernel14emureg_handler13EMU_REGS_LIST17hc83e3544674b2e81E
0000000000437028 l     O .data	0000000000000028 _ZN9axruntime2hv6kernel3ipi16IPI_HANDLER_LIST17ha5536b940fe92211E
0000000000437050 l     O .data	0000000000000028 _ZN9axruntime2hv6kernel3ipi12CPU_INT_LIST17hab623bf0acc9409aE
0000000000437078 l     O .data	0000000000000028 _ZN9axruntime2hv6kernel3emu13EMU_DEVS_LIST17h1a058bc4bb0b02ceE
0000000000000000 l     O .percpu	0000000000000001 _ZN5axhal3cpu15__PERCPU_IS_BSP17h4aac7b01cf173817E
0000000000000008 l     O .percpu	0000000000000008 _ZN5axhal3cpu15__PERCPU_CPU_ID17h10e1599500bab3b2E
00000000004a1ec8 l     O .bss	0000000000000000 _ZN5axstd2io5stdio6stdout8INSTANCE17h10d68d17d11aa7d3E
00000000004a1ec8 l     O .bss	0000000000000001 _ZN2of10MY_FDT_PTR17h6e65d78abd280111E.0
00000000004a1ecc l     O .bss	0000000000000001 __rust_no_alloc_shim_is_unstable
00000000004a1ed0 l     O .bss	0000000000000008 _ZN9arm_gicv311GIC_LRS_NUM17h2de2f87733252a48E.0
00000000004a1ed8 l     O .bss	0000000000000008 _ZN9axruntime11INITED_CPUS17h5d91b948dfd4e625E
00000000004a1ee0 l     O .bss	0000000000000008 _ZN9axruntime2hv6kernel8vm_array12INITED_VCPUS17h4173cbd7a7dca4d2E
00000000004a1ee8 l     O .bss	0000000000000008 _ZN3log5STATE17h89b262efe72803a0E
00000000004a1ef0 l     O .bss	0000000000000008 _ZN2of10MY_FDT_PTR17h6e65d78abd280111E.1
00000000004a1ef8 l     O .bss	0000000000000008 _ZN3log20MAX_LOG_LEVEL_FILTER17h55ca4603cf3356d6E.0
00000000004a1f00 l     O .bss	0000000000000010 _ZN9arm_gicv39GICD_LOCK17h92d22374ccb71b5dE
00000000004a1f10 l     O .bss	0000000000000010 _ZN9arm_gicv39GICR_LOCK17hd73da0275a416bfbE
00000000004a1f20 l     O .bss	0000000000000010 _ZN5axhal8platform14aarch64_common13generic_timer21CNTPCT_TO_NANOS_RATIO17hb645476041be22e7E
00000000004a1f30 l     O .bss	0000000000000010 _ZN10hypercraft4arch3cpu12PER_CPU_BASE17h00dbd352b58d2e58E
00000000004a1f40 l     O .bss	0000000000000018 _ZN10hypercraft4arch3cpu14CURRENT_CPU_HV17hd910620a79ea66a5E
00000000004a1f58 l     O .bss	0000000000000020 _ZN9axruntime2hv6kernel8vm_array8VM_ARRAY17h4c8d22aaebfaa4ebE
00000000004a1f78 l     O .bss	0000000000000028 _ZN9arm_gicv316INTERRUPT_EN_SET17h746fdf980bf176f5E
00000000004a1fa0 l     O .bss	0000000000000040 _ZN62_$LT$of..MY_MACHINE_FDT$u20$as$u20$core..ops..deref..Deref$GT$5deref11__stability4LAZY17h8704da97e9314d6aE
0000000000000000 l    df *ABS*	0000000000000000 compiler_builtins.b6d4295aa4354ef3-cgu.054
000000000042d4b0 l     F .text	0000000000000004 .hidden memset
0000000000000000 l    df *ABS*	0000000000000000 compiler_builtins.b6d4295aa4354ef3-cgu.001
000000000042d4b4 l     F .text	00000000000000fc .hidden _ZN17compiler_builtins3mem6memcpy17h45ad0a154948f175E
000000000042d5b0 l     F .text	0000000000000214 .hidden _ZN17compiler_builtins3mem7memmove17h7095586a8395d10eE
000000000042d7c4 l     F .text	0000000000000158 .hidden _ZN17compiler_builtins3mem6memset17h80e8d6bb320f5e01E
000000000042d91c l     F .text	0000000000000028 .hidden _ZN17compiler_builtins3mem6memcmp17ha89df668c8e670bcE
0000000000000000 l    df *ABS*	0000000000000000 compiler_builtins.b6d4295aa4354ef3-cgu.057
000000000042d944 l     F .text	0000000000000004 .hidden memmove
0000000000000000 l    df *ABS*	0000000000000000 compiler_builtins.b6d4295aa4354ef3-cgu.085
000000000042d948 l     F .text	0000000000000004 .hidden memcmp
0000000000000000 l    df *ABS*	0000000000000000 compiler_builtins.b6d4295aa4354ef3-cgu.128
000000000042d94c l     F .text	0000000000000004 .hidden memcpy
0000000000404798 g     F .text	0000000000002d8c main
0000000000426360 g     F .text	00000000000011b0 __TrapHandler_handle_irq_hv
0000000000421d80 g     F .text	000000000000070c data_abort_handler
000000000042248c g     F .text	000000000000018c hvc_handler
000000000041dd1c g     F .text	0000000000002cf8 rust_main
0000000000422618 g     F .text	00000000000001c4 smc_handler
000000000042ce34 g     F .text	00000000000001bc init_hv
0000000000400000 g     F .text	0000000000000070 _start
000000000040a230 g     F .text	00000000000000d8 current_spxel_irq
000000000040a064 g     F .text	00000000000000bc handle_el0t_32_error_exception
0000000000409fa8 g     F .text	00000000000000bc handle_el0t_32_fiq_exception
0000000000409eec g     F .text	00000000000000bc handle_el0t_32_irq_exception
0000000000409e30 g     F .text	00000000000000bc handle_el0t_32_sync_exception
0000000000409d74 g     F .text	00000000000000bc handle_el0t_64_error_exception
0000000000409cb8 g     F .text	00000000000000bc handle_el0t_64_fiq_exception
0000000000409bfc g     F .text	00000000000000bc handle_el0t_64_irq_exception
0000000000409b40 g     F .text	00000000000000bc handle_el0t_64_sync_exception
0000000000409a84 g     F .text	00000000000000bc handle_el1h_64_error_exception
00000000004099c8 g     F .text	00000000000000bc handle_el1h_64_fiq_exception
00000000004099c0 g     F .text	0000000000000008 handle_el1h_64_irq_exception
000000000040969c g     F .text	0000000000000324 handle_el1h_64_sync_exception
00000000004095e0 g     F .text	00000000000000bc handle_el1t_64_error_exception
0000000000409524 g     F .text	00000000000000bc handle_el1t_64_fiq_exception
0000000000409468 g     F .text	00000000000000bc handle_el1t_64_irq_exception
00000000004093ac g     F .text	00000000000000bc handle_el1t_64_sync_exception
000000000040a120 g     F .text	00000000000000bc invalid_exception_el2
000000000040a308 g     F .text	0000000000000018 lower_aarch64_irq
000000000040a320 g     F .text	00000000000002b4 lower_aarch64_synchronous
0000000000400800 g       .text	0000000000000000 exception_vector_base_el2
0000000000401800 g       .text	0000000000000000 exception_vector_base
0000000000402a44 g       .text	0000000000000000 ret_to_kernel
0000000000402a9c g       .text	0000000000000000 ret_to_user
0000000000402b04 g       .text	0000000000000000 ret_to_first_user
0000000000402b0c g       .text	0000000000000000 context_vm_entry
0000000000438000 g       .guestdata	0000000000000000 __guest_dtb_start
000000000043a000 g       .guestdata	0000000000000000 __guest_kernel_start
0000000000400000 g       .text	0000000000000000 stext
00000000004a2000 g       .bss	0000000000000000 ekernel
000000000042e000 g       .text	0000000000000000 etext
000000000042e000 g       .rodata	0000000000000000 srodata
0000000000435000 g       .rodata	0000000000000000 erodata
000000000043a000 g       .guestdata	0000000000000000 __eguestdata
0000000000435000 g       .data	0000000000000000 sdata
0000000000438000 g       .data	0000000000000000 __sguestdata
0000000000438000 g       .data	0000000000000000 edata
000000000043a040 g       .percpu	0000000000000000 percpu_end
000000000043a000 g       .guestdata	0000000000000000 percpu_start
000000000043c000 g       .bss	0000000000000000 boot_stack
000000000047c000 g       .bss	0000000000000000 boot_stack_top
000000000047c000 g       .bss	0000000000000000 sbss
00000000004a2000 g       .bss	0000000000000000 ebss
00000000004a2000 g       .guest	0000000000000000 eguest
00000000004a2000 g       .bss	0000000000000000 sguest
0000000000000010 g       .percpu	0000000000000000 __percpu_offset_end
0000000000000000 g       .percpu	0000000000000000 __percpu_offset_start
0000000000400000 g       *ABS*	0000000000000000 BASE_ADDRESS
0000000000000040 g       .percpu	0000000000000000 __percpu_size_aligned
0000000000400000 g       .text	0000000000000000 skernel
0000000000439d62 g       .guestdata	0000000000000000 __guest_dtb_end
000000000043a000 g       .guestdata	0000000000000000 __guest_kernel_end
00000000004a2000 g       .guest	0000000000000000 sguest_dtb
00000000004a2000 g       .guest	0000000000000000 eguest_dtb
00000000004a2000 g       .guest	0000000000000000 sguest_kernel
00000000004a2000 g       .guest	0000000000000000 eguest_kernel



Disassembly of section .text:

0000000000400000 <_start>:
  400000:	d53c1001 	mrs	x1, sctlr_el2
  400004:	927cec21 	and	x1, x1, #0xfffffffffffffff0
  400008:	d51c1001 	msr	sctlr_el2, x1
  40000c:	aa0003f4 	mov	x20, x0
  400010:	d2800000 	mov	x0, #0x0                   	// #0
  400014:	94002c0d 	bl	40b048 <_ZN5axhal8platform14aarch64_common4boot16cache_invalidate17h7f110b7ea5207e90E>
  400018:	d2800040 	mov	x0, #0x2                   	// #2
  40001c:	94002c0b 	bl	40b048 <_ZN5axhal8platform14aarch64_common4boot16cache_invalidate17h7f110b7ea5207e90E>
  400020:	58000288 	ldr	x8, 400070 <_start+0x70>
  400024:	d51cc008 	msr	vbar_el2, x8
  400028:	d53800b3 	mrs	x19, mpidr_el1
  40002c:	92405e73 	and	x19, x19, #0xffffff
  400030:	900001e8 	adrp	x8, 43c000 <_ZN5axhal8platform14aarch64_common4boot10BOOT_STACK17h64bfa16c9aa2ada8E>
  400034:	91410108 	add	x8, x8, #0x40, lsl #12
  400038:	9100011f 	mov	sp, x8
  40003c:	90000000 	adrp	x0, 400000 <_start>
  400040:	94002ca3 	bl	40b2cc <_ZN5axhal8platform14aarch64_common3mem12idmap_kernel17h8b7d978177ee23b3E>
  400044:	94002c88 	bl	40b264 <_ZN5axhal8platform14aarch64_common3mem12init_mmu_el217h271d132c0508af1eE>
  400048:	94002c17 	bl	40b0a4 <_ZN5axhal8platform14aarch64_common4boot13switch_to_el217hc45f77474d8c30f6E>
  40004c:	94002c3e 	bl	40b144 <_ZN5axhal8platform14aarch64_common11dw_apb_uart6handle17he45ed9091d2f0eb5E>
  400050:	d2800008 	mov	x8, #0x0                   	// #0
  400054:	8b2863ff 	add	sp, sp, x8
  400058:	aa1303e0 	mov	x0, x19
  40005c:	aa1403e1 	mov	x1, x20
  400060:	580000c8 	ldr	x8, 400078 <_start+0x78>
  400064:	d63f0100 	blr	x8
  400068:	14000000 	b	400068 <_start+0x68>
  40006c:	d4200020 	brk	#0x1
  400070:	00400800 	.word	0x00400800
  400074:	00000000 	.word	0x00000000
  400078:	0040d008 	.word	0x0040d008
	...

0000000000400800 <exception_vector_base_el2>:
  400800:	d10443ff 	sub	sp, sp, #0x110
  400804:	a90007e0 	stp	x0, x1, [sp]
  400808:	a9010fe2 	stp	x2, x3, [sp, #16]
  40080c:	a90217e4 	stp	x4, x5, [sp, #32]
  400810:	a9031fe6 	stp	x6, x7, [sp, #48]
  400814:	a90427e8 	stp	x8, x9, [sp, #64]
  400818:	a9052fea 	stp	x10, x11, [sp, #80]
  40081c:	a90637ec 	stp	x12, x13, [sp, #96]
  400820:	a9073fee 	stp	x14, x15, [sp, #112]
  400824:	a90847f0 	stp	x16, x17, [sp, #128]
  400828:	a9094ff2 	stp	x18, x19, [sp, #144]
  40082c:	a90a57f4 	stp	x20, x21, [sp, #160]
  400830:	a90b5ff6 	stp	x22, x23, [sp, #176]
  400834:	a90c67f8 	stp	x24, x25, [sp, #192]
  400838:	a90d6ffa 	stp	x26, x27, [sp, #208]
  40083c:	a90e77fc 	stp	x28, x29, [sp, #224]
  400840:	910003e1 	mov	x1, sp
  400844:	91044021 	add	x1, x1, #0x110
  400848:	a90f07fe 	stp	x30, x1, [sp, #240]
  40084c:	d53c402a 	mrs	x10, elr_el2
  400850:	d53c400b 	mrs	x11, spsr_el2
  400854:	a9102fea 	stp	x10, x11, [sp, #256]
  400858:	910003e0 	mov	x0, sp
  40085c:	d2800001 	mov	x1, #0x0                   	// #0
  400860:	d2800002 	mov	x2, #0x0                   	// #0
  400864:	9400262f 	bl	40a120 <invalid_exception_el2>
  400868:	140001e1 	b	400fec <exception_vector_base_el2+0x7ec>
  40086c:	d503201f 	nop
  400870:	d503201f 	nop
  400874:	d503201f 	nop
  400878:	d503201f 	nop
  40087c:	d503201f 	nop
  400880:	d10443ff 	sub	sp, sp, #0x110
  400884:	a90007e0 	stp	x0, x1, [sp]
  400888:	a9010fe2 	stp	x2, x3, [sp, #16]
  40088c:	a90217e4 	stp	x4, x5, [sp, #32]
  400890:	a9031fe6 	stp	x6, x7, [sp, #48]
  400894:	a90427e8 	stp	x8, x9, [sp, #64]
  400898:	a9052fea 	stp	x10, x11, [sp, #80]
  40089c:	a90637ec 	stp	x12, x13, [sp, #96]
  4008a0:	a9073fee 	stp	x14, x15, [sp, #112]
  4008a4:	a90847f0 	stp	x16, x17, [sp, #128]
  4008a8:	a9094ff2 	stp	x18, x19, [sp, #144]
  4008ac:	a90a57f4 	stp	x20, x21, [sp, #160]
  4008b0:	a90b5ff6 	stp	x22, x23, [sp, #176]
  4008b4:	a90c67f8 	stp	x24, x25, [sp, #192]
  4008b8:	a90d6ffa 	stp	x26, x27, [sp, #208]
  4008bc:	a90e77fc 	stp	x28, x29, [sp, #224]
  4008c0:	910003e1 	mov	x1, sp
  4008c4:	91044021 	add	x1, x1, #0x110
  4008c8:	a90f07fe 	stp	x30, x1, [sp, #240]
  4008cc:	d53c402a 	mrs	x10, elr_el2
  4008d0:	d53c400b 	mrs	x11, spsr_el2
  4008d4:	a9102fea 	stp	x10, x11, [sp, #256]
  4008d8:	910003e0 	mov	x0, sp
  4008dc:	d2800021 	mov	x1, #0x1                   	// #1
  4008e0:	d2800002 	mov	x2, #0x0                   	// #0
  4008e4:	9400260f 	bl	40a120 <invalid_exception_el2>
  4008e8:	140001c1 	b	400fec <exception_vector_base_el2+0x7ec>
  4008ec:	d503201f 	nop
  4008f0:	d503201f 	nop
  4008f4:	d503201f 	nop
  4008f8:	d503201f 	nop
  4008fc:	d503201f 	nop
  400900:	d10443ff 	sub	sp, sp, #0x110
  400904:	a90007e0 	stp	x0, x1, [sp]
  400908:	a9010fe2 	stp	x2, x3, [sp, #16]
  40090c:	a90217e4 	stp	x4, x5, [sp, #32]
  400910:	a9031fe6 	stp	x6, x7, [sp, #48]
  400914:	a90427e8 	stp	x8, x9, [sp, #64]
  400918:	a9052fea 	stp	x10, x11, [sp, #80]
  40091c:	a90637ec 	stp	x12, x13, [sp, #96]
  400920:	a9073fee 	stp	x14, x15, [sp, #112]
  400924:	a90847f0 	stp	x16, x17, [sp, #128]
  400928:	a9094ff2 	stp	x18, x19, [sp, #144]
  40092c:	a90a57f4 	stp	x20, x21, [sp, #160]
  400930:	a90b5ff6 	stp	x22, x23, [sp, #176]
  400934:	a90c67f8 	stp	x24, x25, [sp, #192]
  400938:	a90d6ffa 	stp	x26, x27, [sp, #208]
  40093c:	a90e77fc 	stp	x28, x29, [sp, #224]
  400940:	910003e1 	mov	x1, sp
  400944:	91044021 	add	x1, x1, #0x110
  400948:	a90f07fe 	stp	x30, x1, [sp, #240]
  40094c:	d53c402a 	mrs	x10, elr_el2
  400950:	d53c400b 	mrs	x11, spsr_el2
  400954:	a9102fea 	stp	x10, x11, [sp, #256]
  400958:	910003e0 	mov	x0, sp
  40095c:	d2800041 	mov	x1, #0x2                   	// #2
  400960:	d2800002 	mov	x2, #0x0                   	// #0
  400964:	940025ef 	bl	40a120 <invalid_exception_el2>
  400968:	140001a1 	b	400fec <exception_vector_base_el2+0x7ec>
  40096c:	d503201f 	nop
  400970:	d503201f 	nop
  400974:	d503201f 	nop
  400978:	d503201f 	nop
  40097c:	d503201f 	nop
  400980:	d10443ff 	sub	sp, sp, #0x110
  400984:	a90007e0 	stp	x0, x1, [sp]
  400988:	a9010fe2 	stp	x2, x3, [sp, #16]
  40098c:	a90217e4 	stp	x4, x5, [sp, #32]
  400990:	a9031fe6 	stp	x6, x7, [sp, #48]
  400994:	a90427e8 	stp	x8, x9, [sp, #64]
  400998:	a9052fea 	stp	x10, x11, [sp, #80]
  40099c:	a90637ec 	stp	x12, x13, [sp, #96]
  4009a0:	a9073fee 	stp	x14, x15, [sp, #112]
  4009a4:	a90847f0 	stp	x16, x17, [sp, #128]
  4009a8:	a9094ff2 	stp	x18, x19, [sp, #144]
  4009ac:	a90a57f4 	stp	x20, x21, [sp, #160]
  4009b0:	a90b5ff6 	stp	x22, x23, [sp, #176]
  4009b4:	a90c67f8 	stp	x24, x25, [sp, #192]
  4009b8:	a90d6ffa 	stp	x26, x27, [sp, #208]
  4009bc:	a90e77fc 	stp	x28, x29, [sp, #224]
  4009c0:	910003e1 	mov	x1, sp
  4009c4:	91044021 	add	x1, x1, #0x110
  4009c8:	a90f07fe 	stp	x30, x1, [sp, #240]
  4009cc:	d53c402a 	mrs	x10, elr_el2
  4009d0:	d53c400b 	mrs	x11, spsr_el2
  4009d4:	a9102fea 	stp	x10, x11, [sp, #256]
  4009d8:	910003e0 	mov	x0, sp
  4009dc:	d2800061 	mov	x1, #0x3                   	// #3
  4009e0:	d2800002 	mov	x2, #0x0                   	// #0
  4009e4:	940025cf 	bl	40a120 <invalid_exception_el2>
  4009e8:	14000181 	b	400fec <exception_vector_base_el2+0x7ec>
  4009ec:	d503201f 	nop
  4009f0:	d503201f 	nop
  4009f4:	d503201f 	nop
  4009f8:	d503201f 	nop
  4009fc:	d503201f 	nop
  400a00:	d10443ff 	sub	sp, sp, #0x110
  400a04:	a90007e0 	stp	x0, x1, [sp]
  400a08:	a9010fe2 	stp	x2, x3, [sp, #16]
  400a0c:	a90217e4 	stp	x4, x5, [sp, #32]
  400a10:	a9031fe6 	stp	x6, x7, [sp, #48]
  400a14:	a90427e8 	stp	x8, x9, [sp, #64]
  400a18:	a9052fea 	stp	x10, x11, [sp, #80]
  400a1c:	a90637ec 	stp	x12, x13, [sp, #96]
  400a20:	a9073fee 	stp	x14, x15, [sp, #112]
  400a24:	a90847f0 	stp	x16, x17, [sp, #128]
  400a28:	a9094ff2 	stp	x18, x19, [sp, #144]
  400a2c:	a90a57f4 	stp	x20, x21, [sp, #160]
  400a30:	a90b5ff6 	stp	x22, x23, [sp, #176]
  400a34:	a90c67f8 	stp	x24, x25, [sp, #192]
  400a38:	a90d6ffa 	stp	x26, x27, [sp, #208]
  400a3c:	a90e77fc 	stp	x28, x29, [sp, #224]
  400a40:	910003e1 	mov	x1, sp
  400a44:	91044021 	add	x1, x1, #0x110
  400a48:	a90f07fe 	stp	x30, x1, [sp, #240]
  400a4c:	d53c402a 	mrs	x10, elr_el2
  400a50:	d53c400b 	mrs	x11, spsr_el2
  400a54:	a9102fea 	stp	x10, x11, [sp, #256]
  400a58:	910003e0 	mov	x0, sp
  400a5c:	d2800001 	mov	x1, #0x0                   	// #0
  400a60:	d2800022 	mov	x2, #0x1                   	// #1
  400a64:	940025af 	bl	40a120 <invalid_exception_el2>
  400a68:	14000161 	b	400fec <exception_vector_base_el2+0x7ec>
  400a6c:	d503201f 	nop
  400a70:	d503201f 	nop
  400a74:	d503201f 	nop
  400a78:	d503201f 	nop
  400a7c:	d503201f 	nop
  400a80:	d10443ff 	sub	sp, sp, #0x110
  400a84:	a90007e0 	stp	x0, x1, [sp]
  400a88:	a9010fe2 	stp	x2, x3, [sp, #16]
  400a8c:	a90217e4 	stp	x4, x5, [sp, #32]
  400a90:	a9031fe6 	stp	x6, x7, [sp, #48]
  400a94:	a90427e8 	stp	x8, x9, [sp, #64]
  400a98:	a9052fea 	stp	x10, x11, [sp, #80]
  400a9c:	a90637ec 	stp	x12, x13, [sp, #96]
  400aa0:	a9073fee 	stp	x14, x15, [sp, #112]
  400aa4:	a90847f0 	stp	x16, x17, [sp, #128]
  400aa8:	a9094ff2 	stp	x18, x19, [sp, #144]
  400aac:	a90a57f4 	stp	x20, x21, [sp, #160]
  400ab0:	a90b5ff6 	stp	x22, x23, [sp, #176]
  400ab4:	a90c67f8 	stp	x24, x25, [sp, #192]
  400ab8:	a90d6ffa 	stp	x26, x27, [sp, #208]
  400abc:	a90e77fc 	stp	x28, x29, [sp, #224]
  400ac0:	910003e1 	mov	x1, sp
  400ac4:	91044021 	add	x1, x1, #0x110
  400ac8:	a90f07fe 	stp	x30, x1, [sp, #240]
  400acc:	d53c402a 	mrs	x10, elr_el2
  400ad0:	d53c400b 	mrs	x11, spsr_el2
  400ad4:	a9102fea 	stp	x10, x11, [sp, #256]
  400ad8:	910003e0 	mov	x0, sp
  400adc:	940025d5 	bl	40a230 <current_spxel_irq>
  400ae0:	14000143 	b	400fec <exception_vector_base_el2+0x7ec>
  400ae4:	d503201f 	nop
  400ae8:	d503201f 	nop
  400aec:	d503201f 	nop
  400af0:	d503201f 	nop
  400af4:	d503201f 	nop
  400af8:	d503201f 	nop
  400afc:	d503201f 	nop
  400b00:	d10443ff 	sub	sp, sp, #0x110
  400b04:	a90007e0 	stp	x0, x1, [sp]
  400b08:	a9010fe2 	stp	x2, x3, [sp, #16]
  400b0c:	a90217e4 	stp	x4, x5, [sp, #32]
  400b10:	a9031fe6 	stp	x6, x7, [sp, #48]
  400b14:	a90427e8 	stp	x8, x9, [sp, #64]
  400b18:	a9052fea 	stp	x10, x11, [sp, #80]
  400b1c:	a90637ec 	stp	x12, x13, [sp, #96]
  400b20:	a9073fee 	stp	x14, x15, [sp, #112]
  400b24:	a90847f0 	stp	x16, x17, [sp, #128]
  400b28:	a9094ff2 	stp	x18, x19, [sp, #144]
  400b2c:	a90a57f4 	stp	x20, x21, [sp, #160]
  400b30:	a90b5ff6 	stp	x22, x23, [sp, #176]
  400b34:	a90c67f8 	stp	x24, x25, [sp, #192]
  400b38:	a90d6ffa 	stp	x26, x27, [sp, #208]
  400b3c:	a90e77fc 	stp	x28, x29, [sp, #224]
  400b40:	910003e1 	mov	x1, sp
  400b44:	91044021 	add	x1, x1, #0x110
  400b48:	a90f07fe 	stp	x30, x1, [sp, #240]
  400b4c:	d53c402a 	mrs	x10, elr_el2
  400b50:	d53c400b 	mrs	x11, spsr_el2
  400b54:	a9102fea 	stp	x10, x11, [sp, #256]
  400b58:	910003e0 	mov	x0, sp
  400b5c:	d2800041 	mov	x1, #0x2                   	// #2
  400b60:	d2800022 	mov	x2, #0x1                   	// #1
  400b64:	9400256f 	bl	40a120 <invalid_exception_el2>
  400b68:	14000121 	b	400fec <exception_vector_base_el2+0x7ec>
  400b6c:	d503201f 	nop
  400b70:	d503201f 	nop
  400b74:	d503201f 	nop
  400b78:	d503201f 	nop
  400b7c:	d503201f 	nop
  400b80:	d10443ff 	sub	sp, sp, #0x110
  400b84:	a90007e0 	stp	x0, x1, [sp]
  400b88:	a9010fe2 	stp	x2, x3, [sp, #16]
  400b8c:	a90217e4 	stp	x4, x5, [sp, #32]
  400b90:	a9031fe6 	stp	x6, x7, [sp, #48]
  400b94:	a90427e8 	stp	x8, x9, [sp, #64]
  400b98:	a9052fea 	stp	x10, x11, [sp, #80]
  400b9c:	a90637ec 	stp	x12, x13, [sp, #96]
  400ba0:	a9073fee 	stp	x14, x15, [sp, #112]
  400ba4:	a90847f0 	stp	x16, x17, [sp, #128]
  400ba8:	a9094ff2 	stp	x18, x19, [sp, #144]
  400bac:	a90a57f4 	stp	x20, x21, [sp, #160]
  400bb0:	a90b5ff6 	stp	x22, x23, [sp, #176]
  400bb4:	a90c67f8 	stp	x24, x25, [sp, #192]
  400bb8:	a90d6ffa 	stp	x26, x27, [sp, #208]
  400bbc:	a90e77fc 	stp	x28, x29, [sp, #224]
  400bc0:	910003e1 	mov	x1, sp
  400bc4:	91044021 	add	x1, x1, #0x110
  400bc8:	a90f07fe 	stp	x30, x1, [sp, #240]
  400bcc:	d53c402a 	mrs	x10, elr_el2
  400bd0:	d53c400b 	mrs	x11, spsr_el2
  400bd4:	a9102fea 	stp	x10, x11, [sp, #256]
  400bd8:	910003e0 	mov	x0, sp
  400bdc:	d2800061 	mov	x1, #0x3                   	// #3
  400be0:	d2800022 	mov	x2, #0x1                   	// #1
  400be4:	9400254f 	bl	40a120 <invalid_exception_el2>
  400be8:	14000101 	b	400fec <exception_vector_base_el2+0x7ec>
  400bec:	d503201f 	nop
  400bf0:	d503201f 	nop
  400bf4:	d503201f 	nop
  400bf8:	d503201f 	nop
  400bfc:	d503201f 	nop
  400c00:	d10443ff 	sub	sp, sp, #0x110
  400c04:	a90007e0 	stp	x0, x1, [sp]
  400c08:	a9010fe2 	stp	x2, x3, [sp, #16]
  400c0c:	a90217e4 	stp	x4, x5, [sp, #32]
  400c10:	a9031fe6 	stp	x6, x7, [sp, #48]
  400c14:	a90427e8 	stp	x8, x9, [sp, #64]
  400c18:	a9052fea 	stp	x10, x11, [sp, #80]
  400c1c:	a90637ec 	stp	x12, x13, [sp, #96]
  400c20:	a9073fee 	stp	x14, x15, [sp, #112]
  400c24:	a90847f0 	stp	x16, x17, [sp, #128]
  400c28:	a9094ff2 	stp	x18, x19, [sp, #144]
  400c2c:	a90a57f4 	stp	x20, x21, [sp, #160]
  400c30:	a90b5ff6 	stp	x22, x23, [sp, #176]
  400c34:	a90c67f8 	stp	x24, x25, [sp, #192]
  400c38:	a90d6ffa 	stp	x26, x27, [sp, #208]
  400c3c:	a90e77fc 	stp	x28, x29, [sp, #224]
  400c40:	910003e1 	mov	x1, sp
  400c44:	91044021 	add	x1, x1, #0x110
  400c48:	a90f07fe 	stp	x30, x1, [sp, #240]
  400c4c:	d53c402a 	mrs	x10, elr_el2
  400c50:	d53c400b 	mrs	x11, spsr_el2
  400c54:	a9102fea 	stp	x10, x11, [sp, #256]
  400c58:	910003e0 	mov	x0, sp
  400c5c:	940025b1 	bl	40a320 <lower_aarch64_synchronous>
  400c60:	140000e3 	b	400fec <exception_vector_base_el2+0x7ec>
  400c64:	d503201f 	nop
  400c68:	d503201f 	nop
  400c6c:	d503201f 	nop
  400c70:	d503201f 	nop
  400c74:	d503201f 	nop
  400c78:	d503201f 	nop
  400c7c:	d503201f 	nop
  400c80:	d10443ff 	sub	sp, sp, #0x110
  400c84:	a90007e0 	stp	x0, x1, [sp]
  400c88:	a9010fe2 	stp	x2, x3, [sp, #16]
  400c8c:	a90217e4 	stp	x4, x5, [sp, #32]
  400c90:	a9031fe6 	stp	x6, x7, [sp, #48]
  400c94:	a90427e8 	stp	x8, x9, [sp, #64]
  400c98:	a9052fea 	stp	x10, x11, [sp, #80]
  400c9c:	a90637ec 	stp	x12, x13, [sp, #96]
  400ca0:	a9073fee 	stp	x14, x15, [sp, #112]
  400ca4:	a90847f0 	stp	x16, x17, [sp, #128]
  400ca8:	a9094ff2 	stp	x18, x19, [sp, #144]
  400cac:	a90a57f4 	stp	x20, x21, [sp, #160]
  400cb0:	a90b5ff6 	stp	x22, x23, [sp, #176]
  400cb4:	a90c67f8 	stp	x24, x25, [sp, #192]
  400cb8:	a90d6ffa 	stp	x26, x27, [sp, #208]
  400cbc:	a90e77fc 	stp	x28, x29, [sp, #224]
  400cc0:	910003e1 	mov	x1, sp
  400cc4:	91044021 	add	x1, x1, #0x110
  400cc8:	a90f07fe 	stp	x30, x1, [sp, #240]
  400ccc:	d53c402a 	mrs	x10, elr_el2
  400cd0:	d53c400b 	mrs	x11, spsr_el2
  400cd4:	a9102fea 	stp	x10, x11, [sp, #256]
  400cd8:	910003e0 	mov	x0, sp
  400cdc:	9400258b 	bl	40a308 <lower_aarch64_irq>
  400ce0:	140000c3 	b	400fec <exception_vector_base_el2+0x7ec>
  400ce4:	d503201f 	nop
  400ce8:	d503201f 	nop
  400cec:	d503201f 	nop
  400cf0:	d503201f 	nop
  400cf4:	d503201f 	nop
  400cf8:	d503201f 	nop
  400cfc:	d503201f 	nop
  400d00:	d10443ff 	sub	sp, sp, #0x110
  400d04:	a90007e0 	stp	x0, x1, [sp]
  400d08:	a9010fe2 	stp	x2, x3, [sp, #16]
  400d0c:	a90217e4 	stp	x4, x5, [sp, #32]
  400d10:	a9031fe6 	stp	x6, x7, [sp, #48]
  400d14:	a90427e8 	stp	x8, x9, [sp, #64]
  400d18:	a9052fea 	stp	x10, x11, [sp, #80]
  400d1c:	a90637ec 	stp	x12, x13, [sp, #96]
  400d20:	a9073fee 	stp	x14, x15, [sp, #112]
  400d24:	a90847f0 	stp	x16, x17, [sp, #128]
  400d28:	a9094ff2 	stp	x18, x19, [sp, #144]
  400d2c:	a90a57f4 	stp	x20, x21, [sp, #160]
  400d30:	a90b5ff6 	stp	x22, x23, [sp, #176]
  400d34:	a90c67f8 	stp	x24, x25, [sp, #192]
  400d38:	a90d6ffa 	stp	x26, x27, [sp, #208]
  400d3c:	a90e77fc 	stp	x28, x29, [sp, #224]
  400d40:	910003e1 	mov	x1, sp
  400d44:	91044021 	add	x1, x1, #0x110
  400d48:	a90f07fe 	stp	x30, x1, [sp, #240]
  400d4c:	d53c402a 	mrs	x10, elr_el2
  400d50:	d53c400b 	mrs	x11, spsr_el2
  400d54:	a9102fea 	stp	x10, x11, [sp, #256]
  400d58:	910003e0 	mov	x0, sp
  400d5c:	d2800041 	mov	x1, #0x2                   	// #2
  400d60:	d2800042 	mov	x2, #0x2                   	// #2
  400d64:	940024ef 	bl	40a120 <invalid_exception_el2>
  400d68:	140000a1 	b	400fec <exception_vector_base_el2+0x7ec>
  400d6c:	d503201f 	nop
  400d70:	d503201f 	nop
  400d74:	d503201f 	nop
  400d78:	d503201f 	nop
  400d7c:	d503201f 	nop
  400d80:	d10443ff 	sub	sp, sp, #0x110
  400d84:	a90007e0 	stp	x0, x1, [sp]
  400d88:	a9010fe2 	stp	x2, x3, [sp, #16]
  400d8c:	a90217e4 	stp	x4, x5, [sp, #32]
  400d90:	a9031fe6 	stp	x6, x7, [sp, #48]
  400d94:	a90427e8 	stp	x8, x9, [sp, #64]
  400d98:	a9052fea 	stp	x10, x11, [sp, #80]
  400d9c:	a90637ec 	stp	x12, x13, [sp, #96]
  400da0:	a9073fee 	stp	x14, x15, [sp, #112]
  400da4:	a90847f0 	stp	x16, x17, [sp, #128]
  400da8:	a9094ff2 	stp	x18, x19, [sp, #144]
  400dac:	a90a57f4 	stp	x20, x21, [sp, #160]
  400db0:	a90b5ff6 	stp	x22, x23, [sp, #176]
  400db4:	a90c67f8 	stp	x24, x25, [sp, #192]
  400db8:	a90d6ffa 	stp	x26, x27, [sp, #208]
  400dbc:	a90e77fc 	stp	x28, x29, [sp, #224]
  400dc0:	910003e1 	mov	x1, sp
  400dc4:	91044021 	add	x1, x1, #0x110
  400dc8:	a90f07fe 	stp	x30, x1, [sp, #240]
  400dcc:	d53c402a 	mrs	x10, elr_el2
  400dd0:	d53c400b 	mrs	x11, spsr_el2
  400dd4:	a9102fea 	stp	x10, x11, [sp, #256]
  400dd8:	910003e0 	mov	x0, sp
  400ddc:	d2800061 	mov	x1, #0x3                   	// #3
  400de0:	d2800042 	mov	x2, #0x2                   	// #2
  400de4:	940024cf 	bl	40a120 <invalid_exception_el2>
  400de8:	14000081 	b	400fec <exception_vector_base_el2+0x7ec>
  400dec:	d503201f 	nop
  400df0:	d503201f 	nop
  400df4:	d503201f 	nop
  400df8:	d503201f 	nop
  400dfc:	d503201f 	nop
  400e00:	d10443ff 	sub	sp, sp, #0x110
  400e04:	a90007e0 	stp	x0, x1, [sp]
  400e08:	a9010fe2 	stp	x2, x3, [sp, #16]
  400e0c:	a90217e4 	stp	x4, x5, [sp, #32]
  400e10:	a9031fe6 	stp	x6, x7, [sp, #48]
  400e14:	a90427e8 	stp	x8, x9, [sp, #64]
  400e18:	a9052fea 	stp	x10, x11, [sp, #80]
  400e1c:	a90637ec 	stp	x12, x13, [sp, #96]
  400e20:	a9073fee 	stp	x14, x15, [sp, #112]
  400e24:	a90847f0 	stp	x16, x17, [sp, #128]
  400e28:	a9094ff2 	stp	x18, x19, [sp, #144]
  400e2c:	a90a57f4 	stp	x20, x21, [sp, #160]
  400e30:	a90b5ff6 	stp	x22, x23, [sp, #176]
  400e34:	a90c67f8 	stp	x24, x25, [sp, #192]
  400e38:	a90d6ffa 	stp	x26, x27, [sp, #208]
  400e3c:	a90e77fc 	stp	x28, x29, [sp, #224]
  400e40:	910003e1 	mov	x1, sp
  400e44:	91044021 	add	x1, x1, #0x110
  400e48:	a90f07fe 	stp	x30, x1, [sp, #240]
  400e4c:	d53c402a 	mrs	x10, elr_el2
  400e50:	d53c400b 	mrs	x11, spsr_el2
  400e54:	a9102fea 	stp	x10, x11, [sp, #256]
  400e58:	910003e0 	mov	x0, sp
  400e5c:	d2800001 	mov	x1, #0x0                   	// #0
  400e60:	d2800062 	mov	x2, #0x3                   	// #3
  400e64:	940024af 	bl	40a120 <invalid_exception_el2>
  400e68:	14000061 	b	400fec <exception_vector_base_el2+0x7ec>
  400e6c:	d503201f 	nop
  400e70:	d503201f 	nop
  400e74:	d503201f 	nop
  400e78:	d503201f 	nop
  400e7c:	d503201f 	nop
  400e80:	d10443ff 	sub	sp, sp, #0x110
  400e84:	a90007e0 	stp	x0, x1, [sp]
  400e88:	a9010fe2 	stp	x2, x3, [sp, #16]
  400e8c:	a90217e4 	stp	x4, x5, [sp, #32]
  400e90:	a9031fe6 	stp	x6, x7, [sp, #48]
  400e94:	a90427e8 	stp	x8, x9, [sp, #64]
  400e98:	a9052fea 	stp	x10, x11, [sp, #80]
  400e9c:	a90637ec 	stp	x12, x13, [sp, #96]
  400ea0:	a9073fee 	stp	x14, x15, [sp, #112]
  400ea4:	a90847f0 	stp	x16, x17, [sp, #128]
  400ea8:	a9094ff2 	stp	x18, x19, [sp, #144]
  400eac:	a90a57f4 	stp	x20, x21, [sp, #160]
  400eb0:	a90b5ff6 	stp	x22, x23, [sp, #176]
  400eb4:	a90c67f8 	stp	x24, x25, [sp, #192]
  400eb8:	a90d6ffa 	stp	x26, x27, [sp, #208]
  400ebc:	a90e77fc 	stp	x28, x29, [sp, #224]
  400ec0:	910003e1 	mov	x1, sp
  400ec4:	91044021 	add	x1, x1, #0x110
  400ec8:	a90f07fe 	stp	x30, x1, [sp, #240]
  400ecc:	d53c402a 	mrs	x10, elr_el2
  400ed0:	d53c400b 	mrs	x11, spsr_el2
  400ed4:	a9102fea 	stp	x10, x11, [sp, #256]
  400ed8:	910003e0 	mov	x0, sp
  400edc:	d2800021 	mov	x1, #0x1                   	// #1
  400ee0:	d2800062 	mov	x2, #0x3                   	// #3
  400ee4:	9400248f 	bl	40a120 <invalid_exception_el2>
  400ee8:	14000041 	b	400fec <exception_vector_base_el2+0x7ec>
  400eec:	d503201f 	nop
  400ef0:	d503201f 	nop
  400ef4:	d503201f 	nop
  400ef8:	d503201f 	nop
  400efc:	d503201f 	nop
  400f00:	d10443ff 	sub	sp, sp, #0x110
  400f04:	a90007e0 	stp	x0, x1, [sp]
  400f08:	a9010fe2 	stp	x2, x3, [sp, #16]
  400f0c:	a90217e4 	stp	x4, x5, [sp, #32]
  400f10:	a9031fe6 	stp	x6, x7, [sp, #48]
  400f14:	a90427e8 	stp	x8, x9, [sp, #64]
  400f18:	a9052fea 	stp	x10, x11, [sp, #80]
  400f1c:	a90637ec 	stp	x12, x13, [sp, #96]
  400f20:	a9073fee 	stp	x14, x15, [sp, #112]
  400f24:	a90847f0 	stp	x16, x17, [sp, #128]
  400f28:	a9094ff2 	stp	x18, x19, [sp, #144]
  400f2c:	a90a57f4 	stp	x20, x21, [sp, #160]
  400f30:	a90b5ff6 	stp	x22, x23, [sp, #176]
  400f34:	a90c67f8 	stp	x24, x25, [sp, #192]
  400f38:	a90d6ffa 	stp	x26, x27, [sp, #208]
  400f3c:	a90e77fc 	stp	x28, x29, [sp, #224]
  400f40:	910003e1 	mov	x1, sp
  400f44:	91044021 	add	x1, x1, #0x110
  400f48:	a90f07fe 	stp	x30, x1, [sp, #240]
  400f4c:	d53c402a 	mrs	x10, elr_el2
  400f50:	d53c400b 	mrs	x11, spsr_el2
  400f54:	a9102fea 	stp	x10, x11, [sp, #256]
  400f58:	910003e0 	mov	x0, sp
  400f5c:	d2800041 	mov	x1, #0x2                   	// #2
  400f60:	d2800062 	mov	x2, #0x3                   	// #3
  400f64:	9400246f 	bl	40a120 <invalid_exception_el2>
  400f68:	14000021 	b	400fec <exception_vector_base_el2+0x7ec>
  400f6c:	d503201f 	nop
  400f70:	d503201f 	nop
  400f74:	d503201f 	nop
  400f78:	d503201f 	nop
  400f7c:	d503201f 	nop
  400f80:	d10443ff 	sub	sp, sp, #0x110
  400f84:	a90007e0 	stp	x0, x1, [sp]
  400f88:	a9010fe2 	stp	x2, x3, [sp, #16]
  400f8c:	a90217e4 	stp	x4, x5, [sp, #32]
  400f90:	a9031fe6 	stp	x6, x7, [sp, #48]
  400f94:	a90427e8 	stp	x8, x9, [sp, #64]
  400f98:	a9052fea 	stp	x10, x11, [sp, #80]
  400f9c:	a90637ec 	stp	x12, x13, [sp, #96]
  400fa0:	a9073fee 	stp	x14, x15, [sp, #112]
  400fa4:	a90847f0 	stp	x16, x17, [sp, #128]
  400fa8:	a9094ff2 	stp	x18, x19, [sp, #144]
  400fac:	a90a57f4 	stp	x20, x21, [sp, #160]
  400fb0:	a90b5ff6 	stp	x22, x23, [sp, #176]
  400fb4:	a90c67f8 	stp	x24, x25, [sp, #192]
  400fb8:	a90d6ffa 	stp	x26, x27, [sp, #208]
  400fbc:	a90e77fc 	stp	x28, x29, [sp, #224]
  400fc0:	910003e1 	mov	x1, sp
  400fc4:	91044021 	add	x1, x1, #0x110
  400fc8:	a90f07fe 	stp	x30, x1, [sp, #240]
  400fcc:	d53c402a 	mrs	x10, elr_el2
  400fd0:	d53c400b 	mrs	x11, spsr_el2
  400fd4:	a9102fea 	stp	x10, x11, [sp, #256]
  400fd8:	910003e0 	mov	x0, sp
  400fdc:	d2800061 	mov	x1, #0x3                   	// #3
  400fe0:	d2800062 	mov	x2, #0x3                   	// #3
  400fe4:	9400244f 	bl	40a120 <invalid_exception_el2>
  400fe8:	14000001 	b	400fec <exception_vector_base_el2+0x7ec>
  400fec:	a9502fea 	ldp	x10, x11, [sp, #256]
  400ff0:	d51c402a 	msr	elr_el2, x10
  400ff4:	d51c400b 	msr	spsr_el2, x11
  400ff8:	f9407bfe 	ldr	x30, [sp, #240]
  400ffc:	a94e77fc 	ldp	x28, x29, [sp, #224]
  401000:	a94d6ffa 	ldp	x26, x27, [sp, #208]
  401004:	a94c67f8 	ldp	x24, x25, [sp, #192]
  401008:	a94b5ff6 	ldp	x22, x23, [sp, #176]
  40100c:	a94a57f4 	ldp	x20, x21, [sp, #160]
  401010:	a9494ff2 	ldp	x18, x19, [sp, #144]
  401014:	a94847f0 	ldp	x16, x17, [sp, #128]
  401018:	a9473fee 	ldp	x14, x15, [sp, #112]
  40101c:	a94637ec 	ldp	x12, x13, [sp, #96]
  401020:	a9452fea 	ldp	x10, x11, [sp, #80]
  401024:	a94427e8 	ldp	x8, x9, [sp, #64]
  401028:	a9431fe6 	ldp	x6, x7, [sp, #48]
  40102c:	a94217e4 	ldp	x4, x5, [sp, #32]
  401030:	a9410fe2 	ldp	x2, x3, [sp, #16]
  401034:	a94007e0 	ldp	x0, x1, [sp]
  401038:	910443ff 	add	sp, sp, #0x110
  40103c:	d69f03e0 	eret
  401040:	d503201f 	nop
  401044:	d503201f 	nop
  401048:	d503201f 	nop
  40104c:	d503201f 	nop
  401050:	d503201f 	nop
  401054:	d503201f 	nop
  401058:	d503201f 	nop
  40105c:	d503201f 	nop
  401060:	d503201f 	nop
  401064:	d503201f 	nop
  401068:	d503201f 	nop
  40106c:	d503201f 	nop
  401070:	d503201f 	nop
  401074:	d503201f 	nop
  401078:	d503201f 	nop
  40107c:	d503201f 	nop
  401080:	d503201f 	nop
  401084:	d503201f 	nop
  401088:	d503201f 	nop
  40108c:	d503201f 	nop
  401090:	d503201f 	nop
  401094:	d503201f 	nop
  401098:	d503201f 	nop
  40109c:	d503201f 	nop
  4010a0:	d503201f 	nop
  4010a4:	d503201f 	nop
  4010a8:	d503201f 	nop
  4010ac:	d503201f 	nop
  4010b0:	d503201f 	nop
  4010b4:	d503201f 	nop
  4010b8:	d503201f 	nop
  4010bc:	d503201f 	nop
  4010c0:	d503201f 	nop
  4010c4:	d503201f 	nop
  4010c8:	d503201f 	nop
  4010cc:	d503201f 	nop
  4010d0:	d503201f 	nop
  4010d4:	d503201f 	nop
  4010d8:	d503201f 	nop
  4010dc:	d503201f 	nop
  4010e0:	d503201f 	nop
  4010e4:	d503201f 	nop
  4010e8:	d503201f 	nop
  4010ec:	d503201f 	nop
  4010f0:	d503201f 	nop
  4010f4:	d503201f 	nop
  4010f8:	d503201f 	nop
  4010fc:	d503201f 	nop
  401100:	d503201f 	nop
  401104:	d503201f 	nop
  401108:	d503201f 	nop
  40110c:	d503201f 	nop
  401110:	d503201f 	nop
  401114:	d503201f 	nop
  401118:	d503201f 	nop
  40111c:	d503201f 	nop
  401120:	d503201f 	nop
  401124:	d503201f 	nop
  401128:	d503201f 	nop
  40112c:	d503201f 	nop
  401130:	d503201f 	nop
  401134:	d503201f 	nop
  401138:	d503201f 	nop
  40113c:	d503201f 	nop
  401140:	d503201f 	nop
  401144:	d503201f 	nop
  401148:	d503201f 	nop
  40114c:	d503201f 	nop
  401150:	d503201f 	nop
  401154:	d503201f 	nop
  401158:	d503201f 	nop
  40115c:	d503201f 	nop
  401160:	d503201f 	nop
  401164:	d503201f 	nop
  401168:	d503201f 	nop
  40116c:	d503201f 	nop
  401170:	d503201f 	nop
  401174:	d503201f 	nop
  401178:	d503201f 	nop
  40117c:	d503201f 	nop
  401180:	d503201f 	nop
  401184:	d503201f 	nop
  401188:	d503201f 	nop
  40118c:	d503201f 	nop
  401190:	d503201f 	nop
  401194:	d503201f 	nop
  401198:	d503201f 	nop
  40119c:	d503201f 	nop
  4011a0:	d503201f 	nop
  4011a4:	d503201f 	nop
  4011a8:	d503201f 	nop
  4011ac:	d503201f 	nop
  4011b0:	d503201f 	nop
  4011b4:	d503201f 	nop
  4011b8:	d503201f 	nop
  4011bc:	d503201f 	nop
  4011c0:	d503201f 	nop
  4011c4:	d503201f 	nop
  4011c8:	d503201f 	nop
  4011cc:	d503201f 	nop
  4011d0:	d503201f 	nop
  4011d4:	d503201f 	nop
  4011d8:	d503201f 	nop
  4011dc:	d503201f 	nop
  4011e0:	d503201f 	nop
  4011e4:	d503201f 	nop
  4011e8:	d503201f 	nop
  4011ec:	d503201f 	nop
  4011f0:	d503201f 	nop
  4011f4:	d503201f 	nop
  4011f8:	d503201f 	nop
  4011fc:	d503201f 	nop
  401200:	d503201f 	nop
  401204:	d503201f 	nop
  401208:	d503201f 	nop
  40120c:	d503201f 	nop
  401210:	d503201f 	nop
  401214:	d503201f 	nop
  401218:	d503201f 	nop
  40121c:	d503201f 	nop
  401220:	d503201f 	nop
  401224:	d503201f 	nop
  401228:	d503201f 	nop
  40122c:	d503201f 	nop
  401230:	d503201f 	nop
  401234:	d503201f 	nop
  401238:	d503201f 	nop
  40123c:	d503201f 	nop
  401240:	d503201f 	nop
  401244:	d503201f 	nop
  401248:	d503201f 	nop
  40124c:	d503201f 	nop
  401250:	d503201f 	nop
  401254:	d503201f 	nop
  401258:	d503201f 	nop
  40125c:	d503201f 	nop
  401260:	d503201f 	nop
  401264:	d503201f 	nop
  401268:	d503201f 	nop
  40126c:	d503201f 	nop
  401270:	d503201f 	nop
  401274:	d503201f 	nop
  401278:	d503201f 	nop
  40127c:	d503201f 	nop
  401280:	d503201f 	nop
  401284:	d503201f 	nop
  401288:	d503201f 	nop
  40128c:	d503201f 	nop
  401290:	d503201f 	nop
  401294:	d503201f 	nop
  401298:	d503201f 	nop
  40129c:	d503201f 	nop
  4012a0:	d503201f 	nop
  4012a4:	d503201f 	nop
  4012a8:	d503201f 	nop
  4012ac:	d503201f 	nop
  4012b0:	d503201f 	nop
  4012b4:	d503201f 	nop
  4012b8:	d503201f 	nop
  4012bc:	d503201f 	nop
  4012c0:	d503201f 	nop
  4012c4:	d503201f 	nop
  4012c8:	d503201f 	nop
  4012cc:	d503201f 	nop
  4012d0:	d503201f 	nop
  4012d4:	d503201f 	nop
  4012d8:	d503201f 	nop
  4012dc:	d503201f 	nop
  4012e0:	d503201f 	nop
  4012e4:	d503201f 	nop
  4012e8:	d503201f 	nop
  4012ec:	d503201f 	nop
  4012f0:	d503201f 	nop
  4012f4:	d503201f 	nop
  4012f8:	d503201f 	nop
  4012fc:	d503201f 	nop
  401300:	d503201f 	nop
  401304:	d503201f 	nop
  401308:	d503201f 	nop
  40130c:	d503201f 	nop
  401310:	d503201f 	nop
  401314:	d503201f 	nop
  401318:	d503201f 	nop
  40131c:	d503201f 	nop
  401320:	d503201f 	nop
  401324:	d503201f 	nop
  401328:	d503201f 	nop
  40132c:	d503201f 	nop
  401330:	d503201f 	nop
  401334:	d503201f 	nop
  401338:	d503201f 	nop
  40133c:	d503201f 	nop
  401340:	d503201f 	nop
  401344:	d503201f 	nop
  401348:	d503201f 	nop
  40134c:	d503201f 	nop
  401350:	d503201f 	nop
  401354:	d503201f 	nop
  401358:	d503201f 	nop
  40135c:	d503201f 	nop
  401360:	d503201f 	nop
  401364:	d503201f 	nop
  401368:	d503201f 	nop
  40136c:	d503201f 	nop
  401370:	d503201f 	nop
  401374:	d503201f 	nop
  401378:	d503201f 	nop
  40137c:	d503201f 	nop
  401380:	d503201f 	nop
  401384:	d503201f 	nop
  401388:	d503201f 	nop
  40138c:	d503201f 	nop
  401390:	d503201f 	nop
  401394:	d503201f 	nop
  401398:	d503201f 	nop
  40139c:	d503201f 	nop
  4013a0:	d503201f 	nop
  4013a4:	d503201f 	nop
  4013a8:	d503201f 	nop
  4013ac:	d503201f 	nop
  4013b0:	d503201f 	nop
  4013b4:	d503201f 	nop
  4013b8:	d503201f 	nop
  4013bc:	d503201f 	nop
  4013c0:	d503201f 	nop
  4013c4:	d503201f 	nop
  4013c8:	d503201f 	nop
  4013cc:	d503201f 	nop
  4013d0:	d503201f 	nop
  4013d4:	d503201f 	nop
  4013d8:	d503201f 	nop
  4013dc:	d503201f 	nop
  4013e0:	d503201f 	nop
  4013e4:	d503201f 	nop
  4013e8:	d503201f 	nop
  4013ec:	d503201f 	nop
  4013f0:	d503201f 	nop
  4013f4:	d503201f 	nop
  4013f8:	d503201f 	nop
  4013fc:	d503201f 	nop
  401400:	d503201f 	nop
  401404:	d503201f 	nop
  401408:	d503201f 	nop
  40140c:	d503201f 	nop
  401410:	d503201f 	nop
  401414:	d503201f 	nop
  401418:	d503201f 	nop
  40141c:	d503201f 	nop
  401420:	d503201f 	nop
  401424:	d503201f 	nop
  401428:	d503201f 	nop
  40142c:	d503201f 	nop
  401430:	d503201f 	nop
  401434:	d503201f 	nop
  401438:	d503201f 	nop
  40143c:	d503201f 	nop
  401440:	d503201f 	nop
  401444:	d503201f 	nop
  401448:	d503201f 	nop
  40144c:	d503201f 	nop
  401450:	d503201f 	nop
  401454:	d503201f 	nop
  401458:	d503201f 	nop
  40145c:	d503201f 	nop
  401460:	d503201f 	nop
  401464:	d503201f 	nop
  401468:	d503201f 	nop
  40146c:	d503201f 	nop
  401470:	d503201f 	nop
  401474:	d503201f 	nop
  401478:	d503201f 	nop
  40147c:	d503201f 	nop
  401480:	d503201f 	nop
  401484:	d503201f 	nop
  401488:	d503201f 	nop
  40148c:	d503201f 	nop
  401490:	d503201f 	nop
  401494:	d503201f 	nop
  401498:	d503201f 	nop
  40149c:	d503201f 	nop
  4014a0:	d503201f 	nop
  4014a4:	d503201f 	nop
  4014a8:	d503201f 	nop
  4014ac:	d503201f 	nop
  4014b0:	d503201f 	nop
  4014b4:	d503201f 	nop
  4014b8:	d503201f 	nop
  4014bc:	d503201f 	nop
  4014c0:	d503201f 	nop
  4014c4:	d503201f 	nop
  4014c8:	d503201f 	nop
  4014cc:	d503201f 	nop
  4014d0:	d503201f 	nop
  4014d4:	d503201f 	nop
  4014d8:	d503201f 	nop
  4014dc:	d503201f 	nop
  4014e0:	d503201f 	nop
  4014e4:	d503201f 	nop
  4014e8:	d503201f 	nop
  4014ec:	d503201f 	nop
  4014f0:	d503201f 	nop
  4014f4:	d503201f 	nop
  4014f8:	d503201f 	nop
  4014fc:	d503201f 	nop
  401500:	d503201f 	nop
  401504:	d503201f 	nop
  401508:	d503201f 	nop
  40150c:	d503201f 	nop
  401510:	d503201f 	nop
  401514:	d503201f 	nop
  401518:	d503201f 	nop
  40151c:	d503201f 	nop
  401520:	d503201f 	nop
  401524:	d503201f 	nop
  401528:	d503201f 	nop
  40152c:	d503201f 	nop
  401530:	d503201f 	nop
  401534:	d503201f 	nop
  401538:	d503201f 	nop
  40153c:	d503201f 	nop
  401540:	d503201f 	nop
  401544:	d503201f 	nop
  401548:	d503201f 	nop
  40154c:	d503201f 	nop
  401550:	d503201f 	nop
  401554:	d503201f 	nop
  401558:	d503201f 	nop
  40155c:	d503201f 	nop
  401560:	d503201f 	nop
  401564:	d503201f 	nop
  401568:	d503201f 	nop
  40156c:	d503201f 	nop
  401570:	d503201f 	nop
  401574:	d503201f 	nop
  401578:	d503201f 	nop
  40157c:	d503201f 	nop
  401580:	d503201f 	nop
  401584:	d503201f 	nop
  401588:	d503201f 	nop
  40158c:	d503201f 	nop
  401590:	d503201f 	nop
  401594:	d503201f 	nop
  401598:	d503201f 	nop
  40159c:	d503201f 	nop
  4015a0:	d503201f 	nop
  4015a4:	d503201f 	nop
  4015a8:	d503201f 	nop
  4015ac:	d503201f 	nop
  4015b0:	d503201f 	nop
  4015b4:	d503201f 	nop
  4015b8:	d503201f 	nop
  4015bc:	d503201f 	nop
  4015c0:	d503201f 	nop
  4015c4:	d503201f 	nop
  4015c8:	d503201f 	nop
  4015cc:	d503201f 	nop
  4015d0:	d503201f 	nop
  4015d4:	d503201f 	nop
  4015d8:	d503201f 	nop
  4015dc:	d503201f 	nop
  4015e0:	d503201f 	nop
  4015e4:	d503201f 	nop
  4015e8:	d503201f 	nop
  4015ec:	d503201f 	nop
  4015f0:	d503201f 	nop
  4015f4:	d503201f 	nop
  4015f8:	d503201f 	nop
  4015fc:	d503201f 	nop
  401600:	d503201f 	nop
  401604:	d503201f 	nop
  401608:	d503201f 	nop
  40160c:	d503201f 	nop
  401610:	d503201f 	nop
  401614:	d503201f 	nop
  401618:	d503201f 	nop
  40161c:	d503201f 	nop
  401620:	d503201f 	nop
  401624:	d503201f 	nop
  401628:	d503201f 	nop
  40162c:	d503201f 	nop
  401630:	d503201f 	nop
  401634:	d503201f 	nop
  401638:	d503201f 	nop
  40163c:	d503201f 	nop
  401640:	d503201f 	nop
  401644:	d503201f 	nop
  401648:	d503201f 	nop
  40164c:	d503201f 	nop
  401650:	d503201f 	nop
  401654:	d503201f 	nop
  401658:	d503201f 	nop
  40165c:	d503201f 	nop
  401660:	d503201f 	nop
  401664:	d503201f 	nop
  401668:	d503201f 	nop
  40166c:	d503201f 	nop
  401670:	d503201f 	nop
  401674:	d503201f 	nop
  401678:	d503201f 	nop
  40167c:	d503201f 	nop
  401680:	d503201f 	nop
  401684:	d503201f 	nop
  401688:	d503201f 	nop
  40168c:	d503201f 	nop
  401690:	d503201f 	nop
  401694:	d503201f 	nop
  401698:	d503201f 	nop
  40169c:	d503201f 	nop
  4016a0:	d503201f 	nop
  4016a4:	d503201f 	nop
  4016a8:	d503201f 	nop
  4016ac:	d503201f 	nop
  4016b0:	d503201f 	nop
  4016b4:	d503201f 	nop
  4016b8:	d503201f 	nop
  4016bc:	d503201f 	nop
  4016c0:	d503201f 	nop
  4016c4:	d503201f 	nop
  4016c8:	d503201f 	nop
  4016cc:	d503201f 	nop
  4016d0:	d503201f 	nop
  4016d4:	d503201f 	nop
  4016d8:	d503201f 	nop
  4016dc:	d503201f 	nop
  4016e0:	d503201f 	nop
  4016e4:	d503201f 	nop
  4016e8:	d503201f 	nop
  4016ec:	d503201f 	nop
  4016f0:	d503201f 	nop
  4016f4:	d503201f 	nop
  4016f8:	d503201f 	nop
  4016fc:	d503201f 	nop
  401700:	d503201f 	nop
  401704:	d503201f 	nop
  401708:	d503201f 	nop
  40170c:	d503201f 	nop
  401710:	d503201f 	nop
  401714:	d503201f 	nop
  401718:	d503201f 	nop
  40171c:	d503201f 	nop
  401720:	d503201f 	nop
  401724:	d503201f 	nop
  401728:	d503201f 	nop
  40172c:	d503201f 	nop
  401730:	d503201f 	nop
  401734:	d503201f 	nop
  401738:	d503201f 	nop
  40173c:	d503201f 	nop
  401740:	d503201f 	nop
  401744:	d503201f 	nop
  401748:	d503201f 	nop
  40174c:	d503201f 	nop
  401750:	d503201f 	nop
  401754:	d503201f 	nop
  401758:	d503201f 	nop
  40175c:	d503201f 	nop
  401760:	d503201f 	nop
  401764:	d503201f 	nop
  401768:	d503201f 	nop
  40176c:	d503201f 	nop
  401770:	d503201f 	nop
  401774:	d503201f 	nop
  401778:	d503201f 	nop
  40177c:	d503201f 	nop
  401780:	d503201f 	nop
  401784:	d503201f 	nop
  401788:	d503201f 	nop
  40178c:	d503201f 	nop
  401790:	d503201f 	nop
  401794:	d503201f 	nop
  401798:	d503201f 	nop
  40179c:	d503201f 	nop
  4017a0:	d503201f 	nop
  4017a4:	d503201f 	nop
  4017a8:	d503201f 	nop
  4017ac:	d503201f 	nop
  4017b0:	d503201f 	nop
  4017b4:	d503201f 	nop
  4017b8:	d503201f 	nop
  4017bc:	d503201f 	nop
  4017c0:	d503201f 	nop
  4017c4:	d503201f 	nop
  4017c8:	d503201f 	nop
  4017cc:	d503201f 	nop
  4017d0:	d503201f 	nop
  4017d4:	d503201f 	nop
  4017d8:	d503201f 	nop
  4017dc:	d503201f 	nop
  4017e0:	d503201f 	nop
  4017e4:	d503201f 	nop
  4017e8:	d503201f 	nop
  4017ec:	d503201f 	nop
  4017f0:	d503201f 	nop
  4017f4:	d503201f 	nop
  4017f8:	d503201f 	nop
  4017fc:	d503201f 	nop

0000000000401800 <exception_vector_base>:
  401800:	140001e1 	b	401f84 <handle_el1t_64_sync>
  401804:	d503201f 	nop
  401808:	d503201f 	nop
  40180c:	d503201f 	nop
  401810:	d503201f 	nop
  401814:	d503201f 	nop
  401818:	d503201f 	nop
  40181c:	d503201f 	nop
  401820:	d503201f 	nop
  401824:	d503201f 	nop
  401828:	d503201f 	nop
  40182c:	d503201f 	nop
  401830:	d503201f 	nop
  401834:	d503201f 	nop
  401838:	d503201f 	nop
  40183c:	d503201f 	nop
  401840:	d503201f 	nop
  401844:	d503201f 	nop
  401848:	d503201f 	nop
  40184c:	d503201f 	nop
  401850:	d503201f 	nop
  401854:	d503201f 	nop
  401858:	d503201f 	nop
  40185c:	d503201f 	nop
  401860:	d503201f 	nop
  401864:	d503201f 	nop
  401868:	d503201f 	nop
  40186c:	d503201f 	nop
  401870:	d503201f 	nop
  401874:	d503201f 	nop
  401878:	d503201f 	nop
  40187c:	d503201f 	nop
  401880:	140001dc 	b	401ff0 <handle_el1t_64_irq>
  401884:	d503201f 	nop
  401888:	d503201f 	nop
  40188c:	d503201f 	nop
  401890:	d503201f 	nop
  401894:	d503201f 	nop
  401898:	d503201f 	nop
  40189c:	d503201f 	nop
  4018a0:	d503201f 	nop
  4018a4:	d503201f 	nop
  4018a8:	d503201f 	nop
  4018ac:	d503201f 	nop
  4018b0:	d503201f 	nop
  4018b4:	d503201f 	nop
  4018b8:	d503201f 	nop
  4018bc:	d503201f 	nop
  4018c0:	d503201f 	nop
  4018c4:	d503201f 	nop
  4018c8:	d503201f 	nop
  4018cc:	d503201f 	nop
  4018d0:	d503201f 	nop
  4018d4:	d503201f 	nop
  4018d8:	d503201f 	nop
  4018dc:	d503201f 	nop
  4018e0:	d503201f 	nop
  4018e4:	d503201f 	nop
  4018e8:	d503201f 	nop
  4018ec:	d503201f 	nop
  4018f0:	d503201f 	nop
  4018f4:	d503201f 	nop
  4018f8:	d503201f 	nop
  4018fc:	d503201f 	nop
  401900:	140001d7 	b	40205c <handle_el1t_64_fiq>
  401904:	d503201f 	nop
  401908:	d503201f 	nop
  40190c:	d503201f 	nop
  401910:	d503201f 	nop
  401914:	d503201f 	nop
  401918:	d503201f 	nop
  40191c:	d503201f 	nop
  401920:	d503201f 	nop
  401924:	d503201f 	nop
  401928:	d503201f 	nop
  40192c:	d503201f 	nop
  401930:	d503201f 	nop
  401934:	d503201f 	nop
  401938:	d503201f 	nop
  40193c:	d503201f 	nop
  401940:	d503201f 	nop
  401944:	d503201f 	nop
  401948:	d503201f 	nop
  40194c:	d503201f 	nop
  401950:	d503201f 	nop
  401954:	d503201f 	nop
  401958:	d503201f 	nop
  40195c:	d503201f 	nop
  401960:	d503201f 	nop
  401964:	d503201f 	nop
  401968:	d503201f 	nop
  40196c:	d503201f 	nop
  401970:	d503201f 	nop
  401974:	d503201f 	nop
  401978:	d503201f 	nop
  40197c:	d503201f 	nop
  401980:	140001d2 	b	4020c8 <handle_el1t_64_error>
  401984:	d503201f 	nop
  401988:	d503201f 	nop
  40198c:	d503201f 	nop
  401990:	d503201f 	nop
  401994:	d503201f 	nop
  401998:	d503201f 	nop
  40199c:	d503201f 	nop
  4019a0:	d503201f 	nop
  4019a4:	d503201f 	nop
  4019a8:	d503201f 	nop
  4019ac:	d503201f 	nop
  4019b0:	d503201f 	nop
  4019b4:	d503201f 	nop
  4019b8:	d503201f 	nop
  4019bc:	d503201f 	nop
  4019c0:	d503201f 	nop
  4019c4:	d503201f 	nop
  4019c8:	d503201f 	nop
  4019cc:	d503201f 	nop
  4019d0:	d503201f 	nop
  4019d4:	d503201f 	nop
  4019d8:	d503201f 	nop
  4019dc:	d503201f 	nop
  4019e0:	d503201f 	nop
  4019e4:	d503201f 	nop
  4019e8:	d503201f 	nop
  4019ec:	d503201f 	nop
  4019f0:	d503201f 	nop
  4019f4:	d503201f 	nop
  4019f8:	d503201f 	nop
  4019fc:	d503201f 	nop
  401a00:	140001cd 	b	402134 <handle_el1h_64_sync>
  401a04:	d503201f 	nop
  401a08:	d503201f 	nop
  401a0c:	d503201f 	nop
  401a10:	d503201f 	nop
  401a14:	d503201f 	nop
  401a18:	d503201f 	nop
  401a1c:	d503201f 	nop
  401a20:	d503201f 	nop
  401a24:	d503201f 	nop
  401a28:	d503201f 	nop
  401a2c:	d503201f 	nop
  401a30:	d503201f 	nop
  401a34:	d503201f 	nop
  401a38:	d503201f 	nop
  401a3c:	d503201f 	nop
  401a40:	d503201f 	nop
  401a44:	d503201f 	nop
  401a48:	d503201f 	nop
  401a4c:	d503201f 	nop
  401a50:	d503201f 	nop
  401a54:	d503201f 	nop
  401a58:	d503201f 	nop
  401a5c:	d503201f 	nop
  401a60:	d503201f 	nop
  401a64:	d503201f 	nop
  401a68:	d503201f 	nop
  401a6c:	d503201f 	nop
  401a70:	d503201f 	nop
  401a74:	d503201f 	nop
  401a78:	d503201f 	nop
  401a7c:	d503201f 	nop
  401a80:	140001c8 	b	4021a0 <handle_el1h_64_irq>
  401a84:	d503201f 	nop
  401a88:	d503201f 	nop
  401a8c:	d503201f 	nop
  401a90:	d503201f 	nop
  401a94:	d503201f 	nop
  401a98:	d503201f 	nop
  401a9c:	d503201f 	nop
  401aa0:	d503201f 	nop
  401aa4:	d503201f 	nop
  401aa8:	d503201f 	nop
  401aac:	d503201f 	nop
  401ab0:	d503201f 	nop
  401ab4:	d503201f 	nop
  401ab8:	d503201f 	nop
  401abc:	d503201f 	nop
  401ac0:	d503201f 	nop
  401ac4:	d503201f 	nop
  401ac8:	d503201f 	nop
  401acc:	d503201f 	nop
  401ad0:	d503201f 	nop
  401ad4:	d503201f 	nop
  401ad8:	d503201f 	nop
  401adc:	d503201f 	nop
  401ae0:	d503201f 	nop
  401ae4:	d503201f 	nop
  401ae8:	d503201f 	nop
  401aec:	d503201f 	nop
  401af0:	d503201f 	nop
  401af4:	d503201f 	nop
  401af8:	d503201f 	nop
  401afc:	d503201f 	nop
  401b00:	140001c3 	b	40220c <handle_el1h_64_fiq>
  401b04:	d503201f 	nop
  401b08:	d503201f 	nop
  401b0c:	d503201f 	nop
  401b10:	d503201f 	nop
  401b14:	d503201f 	nop
  401b18:	d503201f 	nop
  401b1c:	d503201f 	nop
  401b20:	d503201f 	nop
  401b24:	d503201f 	nop
  401b28:	d503201f 	nop
  401b2c:	d503201f 	nop
  401b30:	d503201f 	nop
  401b34:	d503201f 	nop
  401b38:	d503201f 	nop
  401b3c:	d503201f 	nop
  401b40:	d503201f 	nop
  401b44:	d503201f 	nop
  401b48:	d503201f 	nop
  401b4c:	d503201f 	nop
  401b50:	d503201f 	nop
  401b54:	d503201f 	nop
  401b58:	d503201f 	nop
  401b5c:	d503201f 	nop
  401b60:	d503201f 	nop
  401b64:	d503201f 	nop
  401b68:	d503201f 	nop
  401b6c:	d503201f 	nop
  401b70:	d503201f 	nop
  401b74:	d503201f 	nop
  401b78:	d503201f 	nop
  401b7c:	d503201f 	nop
  401b80:	140001be 	b	402278 <handle_el1h_64_error>
  401b84:	d503201f 	nop
  401b88:	d503201f 	nop
  401b8c:	d503201f 	nop
  401b90:	d503201f 	nop
  401b94:	d503201f 	nop
  401b98:	d503201f 	nop
  401b9c:	d503201f 	nop
  401ba0:	d503201f 	nop
  401ba4:	d503201f 	nop
  401ba8:	d503201f 	nop
  401bac:	d503201f 	nop
  401bb0:	d503201f 	nop
  401bb4:	d503201f 	nop
  401bb8:	d503201f 	nop
  401bbc:	d503201f 	nop
  401bc0:	d503201f 	nop
  401bc4:	d503201f 	nop
  401bc8:	d503201f 	nop
  401bcc:	d503201f 	nop
  401bd0:	d503201f 	nop
  401bd4:	d503201f 	nop
  401bd8:	d503201f 	nop
  401bdc:	d503201f 	nop
  401be0:	d503201f 	nop
  401be4:	d503201f 	nop
  401be8:	d503201f 	nop
  401bec:	d503201f 	nop
  401bf0:	d503201f 	nop
  401bf4:	d503201f 	nop
  401bf8:	d503201f 	nop
  401bfc:	d503201f 	nop
  401c00:	140001b9 	b	4022e4 <handle_el0t_64_sync>
  401c04:	d503201f 	nop
  401c08:	d503201f 	nop
  401c0c:	d503201f 	nop
  401c10:	d503201f 	nop
  401c14:	d503201f 	nop
  401c18:	d503201f 	nop
  401c1c:	d503201f 	nop
  401c20:	d503201f 	nop
  401c24:	d503201f 	nop
  401c28:	d503201f 	nop
  401c2c:	d503201f 	nop
  401c30:	d503201f 	nop
  401c34:	d503201f 	nop
  401c38:	d503201f 	nop
  401c3c:	d503201f 	nop
  401c40:	d503201f 	nop
  401c44:	d503201f 	nop
  401c48:	d503201f 	nop
  401c4c:	d503201f 	nop
  401c50:	d503201f 	nop
  401c54:	d503201f 	nop
  401c58:	d503201f 	nop
  401c5c:	d503201f 	nop
  401c60:	d503201f 	nop
  401c64:	d503201f 	nop
  401c68:	d503201f 	nop
  401c6c:	d503201f 	nop
  401c70:	d503201f 	nop
  401c74:	d503201f 	nop
  401c78:	d503201f 	nop
  401c7c:	d503201f 	nop
  401c80:	140001d4 	b	4023d0 <handle_el0t_64_irq>
  401c84:	d503201f 	nop
  401c88:	d503201f 	nop
  401c8c:	d503201f 	nop
  401c90:	d503201f 	nop
  401c94:	d503201f 	nop
  401c98:	d503201f 	nop
  401c9c:	d503201f 	nop
  401ca0:	d503201f 	nop
  401ca4:	d503201f 	nop
  401ca8:	d503201f 	nop
  401cac:	d503201f 	nop
  401cb0:	d503201f 	nop
  401cb4:	d503201f 	nop
  401cb8:	d503201f 	nop
  401cbc:	d503201f 	nop
  401cc0:	d503201f 	nop
  401cc4:	d503201f 	nop
  401cc8:	d503201f 	nop
  401ccc:	d503201f 	nop
  401cd0:	d503201f 	nop
  401cd4:	d503201f 	nop
  401cd8:	d503201f 	nop
  401cdc:	d503201f 	nop
  401ce0:	d503201f 	nop
  401ce4:	d503201f 	nop
  401ce8:	d503201f 	nop
  401cec:	d503201f 	nop
  401cf0:	d503201f 	nop
  401cf4:	d503201f 	nop
  401cf8:	d503201f 	nop
  401cfc:	d503201f 	nop
  401d00:	140001ef 	b	4024bc <handle_el0t_64_fiq>
  401d04:	d503201f 	nop
  401d08:	d503201f 	nop
  401d0c:	d503201f 	nop
  401d10:	d503201f 	nop
  401d14:	d503201f 	nop
  401d18:	d503201f 	nop
  401d1c:	d503201f 	nop
  401d20:	d503201f 	nop
  401d24:	d503201f 	nop
  401d28:	d503201f 	nop
  401d2c:	d503201f 	nop
  401d30:	d503201f 	nop
  401d34:	d503201f 	nop
  401d38:	d503201f 	nop
  401d3c:	d503201f 	nop
  401d40:	d503201f 	nop
  401d44:	d503201f 	nop
  401d48:	d503201f 	nop
  401d4c:	d503201f 	nop
  401d50:	d503201f 	nop
  401d54:	d503201f 	nop
  401d58:	d503201f 	nop
  401d5c:	d503201f 	nop
  401d60:	d503201f 	nop
  401d64:	d503201f 	nop
  401d68:	d503201f 	nop
  401d6c:	d503201f 	nop
  401d70:	d503201f 	nop
  401d74:	d503201f 	nop
  401d78:	d503201f 	nop
  401d7c:	d503201f 	nop
  401d80:	1400020a 	b	4025a8 <handle_el0t_64_error>
  401d84:	d503201f 	nop
  401d88:	d503201f 	nop
  401d8c:	d503201f 	nop
  401d90:	d503201f 	nop
  401d94:	d503201f 	nop
  401d98:	d503201f 	nop
  401d9c:	d503201f 	nop
  401da0:	d503201f 	nop
  401da4:	d503201f 	nop
  401da8:	d503201f 	nop
  401dac:	d503201f 	nop
  401db0:	d503201f 	nop
  401db4:	d503201f 	nop
  401db8:	d503201f 	nop
  401dbc:	d503201f 	nop
  401dc0:	d503201f 	nop
  401dc4:	d503201f 	nop
  401dc8:	d503201f 	nop
  401dcc:	d503201f 	nop
  401dd0:	d503201f 	nop
  401dd4:	d503201f 	nop
  401dd8:	d503201f 	nop
  401ddc:	d503201f 	nop
  401de0:	d503201f 	nop
  401de4:	d503201f 	nop
  401de8:	d503201f 	nop
  401dec:	d503201f 	nop
  401df0:	d503201f 	nop
  401df4:	d503201f 	nop
  401df8:	d503201f 	nop
  401dfc:	d503201f 	nop
  401e00:	14000225 	b	402694 <handle_el0t_32_sync>
  401e04:	d503201f 	nop
  401e08:	d503201f 	nop
  401e0c:	d503201f 	nop
  401e10:	d503201f 	nop
  401e14:	d503201f 	nop
  401e18:	d503201f 	nop
  401e1c:	d503201f 	nop
  401e20:	d503201f 	nop
  401e24:	d503201f 	nop
  401e28:	d503201f 	nop
  401e2c:	d503201f 	nop
  401e30:	d503201f 	nop
  401e34:	d503201f 	nop
  401e38:	d503201f 	nop
  401e3c:	d503201f 	nop
  401e40:	d503201f 	nop
  401e44:	d503201f 	nop
  401e48:	d503201f 	nop
  401e4c:	d503201f 	nop
  401e50:	d503201f 	nop
  401e54:	d503201f 	nop
  401e58:	d503201f 	nop
  401e5c:	d503201f 	nop
  401e60:	d503201f 	nop
  401e64:	d503201f 	nop
  401e68:	d503201f 	nop
  401e6c:	d503201f 	nop
  401e70:	d503201f 	nop
  401e74:	d503201f 	nop
  401e78:	d503201f 	nop
  401e7c:	d503201f 	nop
  401e80:	14000240 	b	402780 <handle_el0t_32_irq>
  401e84:	d503201f 	nop
  401e88:	d503201f 	nop
  401e8c:	d503201f 	nop
  401e90:	d503201f 	nop
  401e94:	d503201f 	nop
  401e98:	d503201f 	nop
  401e9c:	d503201f 	nop
  401ea0:	d503201f 	nop
  401ea4:	d503201f 	nop
  401ea8:	d503201f 	nop
  401eac:	d503201f 	nop
  401eb0:	d503201f 	nop
  401eb4:	d503201f 	nop
  401eb8:	d503201f 	nop
  401ebc:	d503201f 	nop
  401ec0:	d503201f 	nop
  401ec4:	d503201f 	nop
  401ec8:	d503201f 	nop
  401ecc:	d503201f 	nop
  401ed0:	d503201f 	nop
  401ed4:	d503201f 	nop
  401ed8:	d503201f 	nop
  401edc:	d503201f 	nop
  401ee0:	d503201f 	nop
  401ee4:	d503201f 	nop
  401ee8:	d503201f 	nop
  401eec:	d503201f 	nop
  401ef0:	d503201f 	nop
  401ef4:	d503201f 	nop
  401ef8:	d503201f 	nop
  401efc:	d503201f 	nop
  401f00:	1400025b 	b	40286c <handle_el0t_32_fiq>
  401f04:	d503201f 	nop
  401f08:	d503201f 	nop
  401f0c:	d503201f 	nop
  401f10:	d503201f 	nop
  401f14:	d503201f 	nop
  401f18:	d503201f 	nop
  401f1c:	d503201f 	nop
  401f20:	d503201f 	nop
  401f24:	d503201f 	nop
  401f28:	d503201f 	nop
  401f2c:	d503201f 	nop
  401f30:	d503201f 	nop
  401f34:	d503201f 	nop
  401f38:	d503201f 	nop
  401f3c:	d503201f 	nop
  401f40:	d503201f 	nop
  401f44:	d503201f 	nop
  401f48:	d503201f 	nop
  401f4c:	d503201f 	nop
  401f50:	d503201f 	nop
  401f54:	d503201f 	nop
  401f58:	d503201f 	nop
  401f5c:	d503201f 	nop
  401f60:	d503201f 	nop
  401f64:	d503201f 	nop
  401f68:	d503201f 	nop
  401f6c:	d503201f 	nop
  401f70:	d503201f 	nop
  401f74:	d503201f 	nop
  401f78:	d503201f 	nop
  401f7c:	d503201f 	nop
  401f80:	14000276 	b	402958 <handle_el0t_32_error>

0000000000401f84 <handle_el1t_64_sync>:
  401f84:	d10463ff 	sub	sp, sp, #0x118
  401f88:	a90007e0 	stp	x0, x1, [sp]
  401f8c:	a9010fe2 	stp	x2, x3, [sp, #16]
  401f90:	a90217e4 	stp	x4, x5, [sp, #32]
  401f94:	a9031fe6 	stp	x6, x7, [sp, #48]
  401f98:	a90427e8 	stp	x8, x9, [sp, #64]
  401f9c:	a9052fea 	stp	x10, x11, [sp, #80]
  401fa0:	a90637ec 	stp	x12, x13, [sp, #96]
  401fa4:	a9073fee 	stp	x14, x15, [sp, #112]
  401fa8:	a90847f0 	stp	x16, x17, [sp, #128]
  401fac:	a9094ff2 	stp	x18, x19, [sp, #144]
  401fb0:	a90a57f4 	stp	x20, x21, [sp, #160]
  401fb4:	a90b5ff6 	stp	x22, x23, [sp, #176]
  401fb8:	a90c67f8 	stp	x24, x25, [sp, #192]
  401fbc:	a90d6ffa 	stp	x26, x27, [sp, #208]
  401fc0:	a90e77fc 	stp	x28, x29, [sp, #224]
  401fc4:	f9007bfe 	str	x30, [sp, #240]
  401fc8:	d538402a 	mrs	x10, elr_el1
  401fcc:	d538400b 	mrs	x11, spsr_el1
  401fd0:	a9102fea 	stp	x10, x11, [sp, #256]
  401fd4:	910003e9 	mov	x9, sp
  401fd8:	aa1f03ec 	mov	x12, xzr
  401fdc:	f9008bec 	str	x12, [sp, #272]
  401fe0:	f9007fe9 	str	x9, [sp, #248]
  401fe4:	910003e0 	mov	x0, sp
  401fe8:	94001cf1 	bl	4093ac <handle_el1t_64_sync_exception>
  401fec:	14000296 	b	402a44 <ret_to_kernel>

0000000000401ff0 <handle_el1t_64_irq>:
  401ff0:	d10463ff 	sub	sp, sp, #0x118
  401ff4:	a90007e0 	stp	x0, x1, [sp]
  401ff8:	a9010fe2 	stp	x2, x3, [sp, #16]
  401ffc:	a90217e4 	stp	x4, x5, [sp, #32]
  402000:	a9031fe6 	stp	x6, x7, [sp, #48]
  402004:	a90427e8 	stp	x8, x9, [sp, #64]
  402008:	a9052fea 	stp	x10, x11, [sp, #80]
  40200c:	a90637ec 	stp	x12, x13, [sp, #96]
  402010:	a9073fee 	stp	x14, x15, [sp, #112]
  402014:	a90847f0 	stp	x16, x17, [sp, #128]
  402018:	a9094ff2 	stp	x18, x19, [sp, #144]
  40201c:	a90a57f4 	stp	x20, x21, [sp, #160]
  402020:	a90b5ff6 	stp	x22, x23, [sp, #176]
  402024:	a90c67f8 	stp	x24, x25, [sp, #192]
  402028:	a90d6ffa 	stp	x26, x27, [sp, #208]
  40202c:	a90e77fc 	stp	x28, x29, [sp, #224]
  402030:	f9007bfe 	str	x30, [sp, #240]
  402034:	d538402a 	mrs	x10, elr_el1
  402038:	d538400b 	mrs	x11, spsr_el1
  40203c:	a9102fea 	stp	x10, x11, [sp, #256]
  402040:	910003e9 	mov	x9, sp
  402044:	aa1f03ec 	mov	x12, xzr
  402048:	f9008bec 	str	x12, [sp, #272]
  40204c:	f9007fe9 	str	x9, [sp, #248]
  402050:	910003e0 	mov	x0, sp
  402054:	94001d05 	bl	409468 <handle_el1t_64_irq_exception>
  402058:	1400027b 	b	402a44 <ret_to_kernel>

000000000040205c <handle_el1t_64_fiq>:
  40205c:	d10463ff 	sub	sp, sp, #0x118
  402060:	a90007e0 	stp	x0, x1, [sp]
  402064:	a9010fe2 	stp	x2, x3, [sp, #16]
  402068:	a90217e4 	stp	x4, x5, [sp, #32]
  40206c:	a9031fe6 	stp	x6, x7, [sp, #48]
  402070:	a90427e8 	stp	x8, x9, [sp, #64]
  402074:	a9052fea 	stp	x10, x11, [sp, #80]
  402078:	a90637ec 	stp	x12, x13, [sp, #96]
  40207c:	a9073fee 	stp	x14, x15, [sp, #112]
  402080:	a90847f0 	stp	x16, x17, [sp, #128]
  402084:	a9094ff2 	stp	x18, x19, [sp, #144]
  402088:	a90a57f4 	stp	x20, x21, [sp, #160]
  40208c:	a90b5ff6 	stp	x22, x23, [sp, #176]
  402090:	a90c67f8 	stp	x24, x25, [sp, #192]
  402094:	a90d6ffa 	stp	x26, x27, [sp, #208]
  402098:	a90e77fc 	stp	x28, x29, [sp, #224]
  40209c:	f9007bfe 	str	x30, [sp, #240]
  4020a0:	d538402a 	mrs	x10, elr_el1
  4020a4:	d538400b 	mrs	x11, spsr_el1
  4020a8:	a9102fea 	stp	x10, x11, [sp, #256]
  4020ac:	910003e9 	mov	x9, sp
  4020b0:	aa1f03ec 	mov	x12, xzr
  4020b4:	f9008bec 	str	x12, [sp, #272]
  4020b8:	f9007fe9 	str	x9, [sp, #248]
  4020bc:	910003e0 	mov	x0, sp
  4020c0:	94001d19 	bl	409524 <handle_el1t_64_fiq_exception>
  4020c4:	14000260 	b	402a44 <ret_to_kernel>

00000000004020c8 <handle_el1t_64_error>:
  4020c8:	d10463ff 	sub	sp, sp, #0x118
  4020cc:	a90007e0 	stp	x0, x1, [sp]
  4020d0:	a9010fe2 	stp	x2, x3, [sp, #16]
  4020d4:	a90217e4 	stp	x4, x5, [sp, #32]
  4020d8:	a9031fe6 	stp	x6, x7, [sp, #48]
  4020dc:	a90427e8 	stp	x8, x9, [sp, #64]
  4020e0:	a9052fea 	stp	x10, x11, [sp, #80]
  4020e4:	a90637ec 	stp	x12, x13, [sp, #96]
  4020e8:	a9073fee 	stp	x14, x15, [sp, #112]
  4020ec:	a90847f0 	stp	x16, x17, [sp, #128]
  4020f0:	a9094ff2 	stp	x18, x19, [sp, #144]
  4020f4:	a90a57f4 	stp	x20, x21, [sp, #160]
  4020f8:	a90b5ff6 	stp	x22, x23, [sp, #176]
  4020fc:	a90c67f8 	stp	x24, x25, [sp, #192]
  402100:	a90d6ffa 	stp	x26, x27, [sp, #208]
  402104:	a90e77fc 	stp	x28, x29, [sp, #224]
  402108:	f9007bfe 	str	x30, [sp, #240]
  40210c:	d538402a 	mrs	x10, elr_el1
  402110:	d538400b 	mrs	x11, spsr_el1
  402114:	a9102fea 	stp	x10, x11, [sp, #256]
  402118:	910003e9 	mov	x9, sp
  40211c:	aa1f03ec 	mov	x12, xzr
  402120:	f9008bec 	str	x12, [sp, #272]
  402124:	f9007fe9 	str	x9, [sp, #248]
  402128:	910003e0 	mov	x0, sp
  40212c:	94001d2d 	bl	4095e0 <handle_el1t_64_error_exception>
  402130:	14000245 	b	402a44 <ret_to_kernel>

0000000000402134 <handle_el1h_64_sync>:
  402134:	d10463ff 	sub	sp, sp, #0x118
  402138:	a90007e0 	stp	x0, x1, [sp]
  40213c:	a9010fe2 	stp	x2, x3, [sp, #16]
  402140:	a90217e4 	stp	x4, x5, [sp, #32]
  402144:	a9031fe6 	stp	x6, x7, [sp, #48]
  402148:	a90427e8 	stp	x8, x9, [sp, #64]
  40214c:	a9052fea 	stp	x10, x11, [sp, #80]
  402150:	a90637ec 	stp	x12, x13, [sp, #96]
  402154:	a9073fee 	stp	x14, x15, [sp, #112]
  402158:	a90847f0 	stp	x16, x17, [sp, #128]
  40215c:	a9094ff2 	stp	x18, x19, [sp, #144]
  402160:	a90a57f4 	stp	x20, x21, [sp, #160]
  402164:	a90b5ff6 	stp	x22, x23, [sp, #176]
  402168:	a90c67f8 	stp	x24, x25, [sp, #192]
  40216c:	a90d6ffa 	stp	x26, x27, [sp, #208]
  402170:	a90e77fc 	stp	x28, x29, [sp, #224]
  402174:	f9007bfe 	str	x30, [sp, #240]
  402178:	d538402a 	mrs	x10, elr_el1
  40217c:	d538400b 	mrs	x11, spsr_el1
  402180:	a9102fea 	stp	x10, x11, [sp, #256]
  402184:	910003e9 	mov	x9, sp
  402188:	aa1f03ec 	mov	x12, xzr
  40218c:	f9008bec 	str	x12, [sp, #272]
  402190:	f9007fe9 	str	x9, [sp, #248]
  402194:	910003e0 	mov	x0, sp
  402198:	94001d41 	bl	40969c <handle_el1h_64_sync_exception>
  40219c:	1400022a 	b	402a44 <ret_to_kernel>

00000000004021a0 <handle_el1h_64_irq>:
  4021a0:	d10463ff 	sub	sp, sp, #0x118
  4021a4:	a90007e0 	stp	x0, x1, [sp]
  4021a8:	a9010fe2 	stp	x2, x3, [sp, #16]
  4021ac:	a90217e4 	stp	x4, x5, [sp, #32]
  4021b0:	a9031fe6 	stp	x6, x7, [sp, #48]
  4021b4:	a90427e8 	stp	x8, x9, [sp, #64]
  4021b8:	a9052fea 	stp	x10, x11, [sp, #80]
  4021bc:	a90637ec 	stp	x12, x13, [sp, #96]
  4021c0:	a9073fee 	stp	x14, x15, [sp, #112]
  4021c4:	a90847f0 	stp	x16, x17, [sp, #128]
  4021c8:	a9094ff2 	stp	x18, x19, [sp, #144]
  4021cc:	a90a57f4 	stp	x20, x21, [sp, #160]
  4021d0:	a90b5ff6 	stp	x22, x23, [sp, #176]
  4021d4:	a90c67f8 	stp	x24, x25, [sp, #192]
  4021d8:	a90d6ffa 	stp	x26, x27, [sp, #208]
  4021dc:	a90e77fc 	stp	x28, x29, [sp, #224]
  4021e0:	f9007bfe 	str	x30, [sp, #240]
  4021e4:	d538402a 	mrs	x10, elr_el1
  4021e8:	d538400b 	mrs	x11, spsr_el1
  4021ec:	a9102fea 	stp	x10, x11, [sp, #256]
  4021f0:	910003e9 	mov	x9, sp
  4021f4:	aa1f03ec 	mov	x12, xzr
  4021f8:	f9008bec 	str	x12, [sp, #272]
  4021fc:	f9007fe9 	str	x9, [sp, #248]
  402200:	910003e0 	mov	x0, sp
  402204:	94001def 	bl	4099c0 <handle_el1h_64_irq_exception>
  402208:	1400020f 	b	402a44 <ret_to_kernel>

000000000040220c <handle_el1h_64_fiq>:
  40220c:	d10463ff 	sub	sp, sp, #0x118
  402210:	a90007e0 	stp	x0, x1, [sp]
  402214:	a9010fe2 	stp	x2, x3, [sp, #16]
  402218:	a90217e4 	stp	x4, x5, [sp, #32]
  40221c:	a9031fe6 	stp	x6, x7, [sp, #48]
  402220:	a90427e8 	stp	x8, x9, [sp, #64]
  402224:	a9052fea 	stp	x10, x11, [sp, #80]
  402228:	a90637ec 	stp	x12, x13, [sp, #96]
  40222c:	a9073fee 	stp	x14, x15, [sp, #112]
  402230:	a90847f0 	stp	x16, x17, [sp, #128]
  402234:	a9094ff2 	stp	x18, x19, [sp, #144]
  402238:	a90a57f4 	stp	x20, x21, [sp, #160]
  40223c:	a90b5ff6 	stp	x22, x23, [sp, #176]
  402240:	a90c67f8 	stp	x24, x25, [sp, #192]
  402244:	a90d6ffa 	stp	x26, x27, [sp, #208]
  402248:	a90e77fc 	stp	x28, x29, [sp, #224]
  40224c:	f9007bfe 	str	x30, [sp, #240]
  402250:	d538402a 	mrs	x10, elr_el1
  402254:	d538400b 	mrs	x11, spsr_el1
  402258:	a9102fea 	stp	x10, x11, [sp, #256]
  40225c:	910003e9 	mov	x9, sp
  402260:	aa1f03ec 	mov	x12, xzr
  402264:	f9008bec 	str	x12, [sp, #272]
  402268:	f9007fe9 	str	x9, [sp, #248]
  40226c:	910003e0 	mov	x0, sp
  402270:	94001dd6 	bl	4099c8 <handle_el1h_64_fiq_exception>
  402274:	140001f4 	b	402a44 <ret_to_kernel>

0000000000402278 <handle_el1h_64_error>:
  402278:	d10463ff 	sub	sp, sp, #0x118
  40227c:	a90007e0 	stp	x0, x1, [sp]
  402280:	a9010fe2 	stp	x2, x3, [sp, #16]
  402284:	a90217e4 	stp	x4, x5, [sp, #32]
  402288:	a9031fe6 	stp	x6, x7, [sp, #48]
  40228c:	a90427e8 	stp	x8, x9, [sp, #64]
  402290:	a9052fea 	stp	x10, x11, [sp, #80]
  402294:	a90637ec 	stp	x12, x13, [sp, #96]
  402298:	a9073fee 	stp	x14, x15, [sp, #112]
  40229c:	a90847f0 	stp	x16, x17, [sp, #128]
  4022a0:	a9094ff2 	stp	x18, x19, [sp, #144]
  4022a4:	a90a57f4 	stp	x20, x21, [sp, #160]
  4022a8:	a90b5ff6 	stp	x22, x23, [sp, #176]
  4022ac:	a90c67f8 	stp	x24, x25, [sp, #192]
  4022b0:	a90d6ffa 	stp	x26, x27, [sp, #208]
  4022b4:	a90e77fc 	stp	x28, x29, [sp, #224]
  4022b8:	f9007bfe 	str	x30, [sp, #240]
  4022bc:	d538402a 	mrs	x10, elr_el1
  4022c0:	d538400b 	mrs	x11, spsr_el1
  4022c4:	a9102fea 	stp	x10, x11, [sp, #256]
  4022c8:	910003e9 	mov	x9, sp
  4022cc:	aa1f03ec 	mov	x12, xzr
  4022d0:	f9008bec 	str	x12, [sp, #272]
  4022d4:	f9007fe9 	str	x9, [sp, #248]
  4022d8:	910003e0 	mov	x0, sp
  4022dc:	94001dea 	bl	409a84 <handle_el1h_64_error_exception>
  4022e0:	140001d9 	b	402a44 <ret_to_kernel>

00000000004022e4 <handle_el0t_64_sync>:
  4022e4:	d10463ff 	sub	sp, sp, #0x118
  4022e8:	a90007e0 	stp	x0, x1, [sp]
  4022ec:	a9010fe2 	stp	x2, x3, [sp, #16]
  4022f0:	a90217e4 	stp	x4, x5, [sp, #32]
  4022f4:	a9031fe6 	stp	x6, x7, [sp, #48]
  4022f8:	a90427e8 	stp	x8, x9, [sp, #64]
  4022fc:	a9052fea 	stp	x10, x11, [sp, #80]
  402300:	a90637ec 	stp	x12, x13, [sp, #96]
  402304:	a9073fee 	stp	x14, x15, [sp, #112]
  402308:	a90847f0 	stp	x16, x17, [sp, #128]
  40230c:	a9094ff2 	stp	x18, x19, [sp, #144]
  402310:	a90a57f4 	stp	x20, x21, [sp, #160]
  402314:	a90b5ff6 	stp	x22, x23, [sp, #176]
  402318:	a90c67f8 	stp	x24, x25, [sp, #192]
  40231c:	a90d6ffa 	stp	x26, x27, [sp, #208]
  402320:	a90e77fc 	stp	x28, x29, [sp, #224]
  402324:	f9007bfe 	str	x30, [sp, #240]
  402328:	d538402a 	mrs	x10, elr_el1
  40232c:	d538400b 	mrs	x11, spsr_el1
  402330:	a9102fea 	stp	x10, x11, [sp, #256]
  402334:	aa1f03e0 	mov	x0, xzr
  402338:	aa1f03e1 	mov	x1, xzr
  40233c:	aa1f03e2 	mov	x2, xzr
  402340:	aa1f03e3 	mov	x3, xzr
  402344:	aa1f03e4 	mov	x4, xzr
  402348:	aa1f03e5 	mov	x5, xzr
  40234c:	aa1f03e6 	mov	x6, xzr
  402350:	aa1f03e7 	mov	x7, xzr
  402354:	aa1f03e8 	mov	x8, xzr
  402358:	aa1f03e9 	mov	x9, xzr
  40235c:	aa1f03ea 	mov	x10, xzr
  402360:	aa1f03eb 	mov	x11, xzr
  402364:	aa1f03ec 	mov	x12, xzr
  402368:	aa1f03ed 	mov	x13, xzr
  40236c:	aa1f03ee 	mov	x14, xzr
  402370:	aa1f03ef 	mov	x15, xzr
  402374:	aa1f03f0 	mov	x16, xzr
  402378:	aa1f03f1 	mov	x17, xzr
  40237c:	aa1f03f2 	mov	x18, xzr
  402380:	aa1f03f3 	mov	x19, xzr
  402384:	aa1f03f4 	mov	x20, xzr
  402388:	aa1f03f5 	mov	x21, xzr
  40238c:	aa1f03f6 	mov	x22, xzr
  402390:	aa1f03f7 	mov	x23, xzr
  402394:	aa1f03f8 	mov	x24, xzr
  402398:	aa1f03f9 	mov	x25, xzr
  40239c:	aa1f03fa 	mov	x26, xzr
  4023a0:	aa1f03fb 	mov	x27, xzr
  4023a4:	aa1f03fc 	mov	x28, xzr
  4023a8:	aa1f03fd 	mov	x29, xzr
  4023ac:	d53bd04c 	mrs	x12, tpidr_el0
  4023b0:	f9407fed 	ldr	x13, [sp, #248]
  4023b4:	d5384109 	mrs	x9, sp_el0
  4023b8:	d518410d 	msr	sp_el0, x13
  4023bc:	f9008bec 	str	x12, [sp, #272]
  4023c0:	f9007fe9 	str	x9, [sp, #248]
  4023c4:	910003e0 	mov	x0, sp
  4023c8:	94001dde 	bl	409b40 <handle_el0t_64_sync_exception>
  4023cc:	140001b4 	b	402a9c <ret_to_user>

00000000004023d0 <handle_el0t_64_irq>:
  4023d0:	d10463ff 	sub	sp, sp, #0x118
  4023d4:	a90007e0 	stp	x0, x1, [sp]
  4023d8:	a9010fe2 	stp	x2, x3, [sp, #16]
  4023dc:	a90217e4 	stp	x4, x5, [sp, #32]
  4023e0:	a9031fe6 	stp	x6, x7, [sp, #48]
  4023e4:	a90427e8 	stp	x8, x9, [sp, #64]
  4023e8:	a9052fea 	stp	x10, x11, [sp, #80]
  4023ec:	a90637ec 	stp	x12, x13, [sp, #96]
  4023f0:	a9073fee 	stp	x14, x15, [sp, #112]
  4023f4:	a90847f0 	stp	x16, x17, [sp, #128]
  4023f8:	a9094ff2 	stp	x18, x19, [sp, #144]
  4023fc:	a90a57f4 	stp	x20, x21, [sp, #160]
  402400:	a90b5ff6 	stp	x22, x23, [sp, #176]
  402404:	a90c67f8 	stp	x24, x25, [sp, #192]
  402408:	a90d6ffa 	stp	x26, x27, [sp, #208]
  40240c:	a90e77fc 	stp	x28, x29, [sp, #224]
  402410:	f9007bfe 	str	x30, [sp, #240]
  402414:	d538402a 	mrs	x10, elr_el1
  402418:	d538400b 	mrs	x11, spsr_el1
  40241c:	a9102fea 	stp	x10, x11, [sp, #256]
  402420:	aa1f03e0 	mov	x0, xzr
  402424:	aa1f03e1 	mov	x1, xzr
  402428:	aa1f03e2 	mov	x2, xzr
  40242c:	aa1f03e3 	mov	x3, xzr
  402430:	aa1f03e4 	mov	x4, xzr
  402434:	aa1f03e5 	mov	x5, xzr
  402438:	aa1f03e6 	mov	x6, xzr
  40243c:	aa1f03e7 	mov	x7, xzr
  402440:	aa1f03e8 	mov	x8, xzr
  402444:	aa1f03e9 	mov	x9, xzr
  402448:	aa1f03ea 	mov	x10, xzr
  40244c:	aa1f03eb 	mov	x11, xzr
  402450:	aa1f03ec 	mov	x12, xzr
  402454:	aa1f03ed 	mov	x13, xzr
  402458:	aa1f03ee 	mov	x14, xzr
  40245c:	aa1f03ef 	mov	x15, xzr
  402460:	aa1f03f0 	mov	x16, xzr
  402464:	aa1f03f1 	mov	x17, xzr
  402468:	aa1f03f2 	mov	x18, xzr
  40246c:	aa1f03f3 	mov	x19, xzr
  402470:	aa1f03f4 	mov	x20, xzr
  402474:	aa1f03f5 	mov	x21, xzr
  402478:	aa1f03f6 	mov	x22, xzr
  40247c:	aa1f03f7 	mov	x23, xzr
  402480:	aa1f03f8 	mov	x24, xzr
  402484:	aa1f03f9 	mov	x25, xzr
  402488:	aa1f03fa 	mov	x26, xzr
  40248c:	aa1f03fb 	mov	x27, xzr
  402490:	aa1f03fc 	mov	x28, xzr
  402494:	aa1f03fd 	mov	x29, xzr
  402498:	d53bd04c 	mrs	x12, tpidr_el0
  40249c:	f9407fed 	ldr	x13, [sp, #248]
  4024a0:	d5384109 	mrs	x9, sp_el0
  4024a4:	d518410d 	msr	sp_el0, x13
  4024a8:	f9008bec 	str	x12, [sp, #272]
  4024ac:	f9007fe9 	str	x9, [sp, #248]
  4024b0:	910003e0 	mov	x0, sp
  4024b4:	94001dd2 	bl	409bfc <handle_el0t_64_irq_exception>
  4024b8:	14000179 	b	402a9c <ret_to_user>

00000000004024bc <handle_el0t_64_fiq>:
  4024bc:	d10463ff 	sub	sp, sp, #0x118
  4024c0:	a90007e0 	stp	x0, x1, [sp]
  4024c4:	a9010fe2 	stp	x2, x3, [sp, #16]
  4024c8:	a90217e4 	stp	x4, x5, [sp, #32]
  4024cc:	a9031fe6 	stp	x6, x7, [sp, #48]
  4024d0:	a90427e8 	stp	x8, x9, [sp, #64]
  4024d4:	a9052fea 	stp	x10, x11, [sp, #80]
  4024d8:	a90637ec 	stp	x12, x13, [sp, #96]
  4024dc:	a9073fee 	stp	x14, x15, [sp, #112]
  4024e0:	a90847f0 	stp	x16, x17, [sp, #128]
  4024e4:	a9094ff2 	stp	x18, x19, [sp, #144]
  4024e8:	a90a57f4 	stp	x20, x21, [sp, #160]
  4024ec:	a90b5ff6 	stp	x22, x23, [sp, #176]
  4024f0:	a90c67f8 	stp	x24, x25, [sp, #192]
  4024f4:	a90d6ffa 	stp	x26, x27, [sp, #208]
  4024f8:	a90e77fc 	stp	x28, x29, [sp, #224]
  4024fc:	f9007bfe 	str	x30, [sp, #240]
  402500:	d538402a 	mrs	x10, elr_el1
  402504:	d538400b 	mrs	x11, spsr_el1
  402508:	a9102fea 	stp	x10, x11, [sp, #256]
  40250c:	aa1f03e0 	mov	x0, xzr
  402510:	aa1f03e1 	mov	x1, xzr
  402514:	aa1f03e2 	mov	x2, xzr
  402518:	aa1f03e3 	mov	x3, xzr
  40251c:	aa1f03e4 	mov	x4, xzr
  402520:	aa1f03e5 	mov	x5, xzr
  402524:	aa1f03e6 	mov	x6, xzr
  402528:	aa1f03e7 	mov	x7, xzr
  40252c:	aa1f03e8 	mov	x8, xzr
  402530:	aa1f03e9 	mov	x9, xzr
  402534:	aa1f03ea 	mov	x10, xzr
  402538:	aa1f03eb 	mov	x11, xzr
  40253c:	aa1f03ec 	mov	x12, xzr
  402540:	aa1f03ed 	mov	x13, xzr
  402544:	aa1f03ee 	mov	x14, xzr
  402548:	aa1f03ef 	mov	x15, xzr
  40254c:	aa1f03f0 	mov	x16, xzr
  402550:	aa1f03f1 	mov	x17, xzr
  402554:	aa1f03f2 	mov	x18, xzr
  402558:	aa1f03f3 	mov	x19, xzr
  40255c:	aa1f03f4 	mov	x20, xzr
  402560:	aa1f03f5 	mov	x21, xzr
  402564:	aa1f03f6 	mov	x22, xzr
  402568:	aa1f03f7 	mov	x23, xzr
  40256c:	aa1f03f8 	mov	x24, xzr
  402570:	aa1f03f9 	mov	x25, xzr
  402574:	aa1f03fa 	mov	x26, xzr
  402578:	aa1f03fb 	mov	x27, xzr
  40257c:	aa1f03fc 	mov	x28, xzr
  402580:	aa1f03fd 	mov	x29, xzr
  402584:	d53bd04c 	mrs	x12, tpidr_el0
  402588:	f9407fed 	ldr	x13, [sp, #248]
  40258c:	d5384109 	mrs	x9, sp_el0
  402590:	d518410d 	msr	sp_el0, x13
  402594:	f9008bec 	str	x12, [sp, #272]
  402598:	f9007fe9 	str	x9, [sp, #248]
  40259c:	910003e0 	mov	x0, sp
  4025a0:	94001dc6 	bl	409cb8 <handle_el0t_64_fiq_exception>
  4025a4:	1400013e 	b	402a9c <ret_to_user>

00000000004025a8 <handle_el0t_64_error>:
  4025a8:	d10463ff 	sub	sp, sp, #0x118
  4025ac:	a90007e0 	stp	x0, x1, [sp]
  4025b0:	a9010fe2 	stp	x2, x3, [sp, #16]
  4025b4:	a90217e4 	stp	x4, x5, [sp, #32]
  4025b8:	a9031fe6 	stp	x6, x7, [sp, #48]
  4025bc:	a90427e8 	stp	x8, x9, [sp, #64]
  4025c0:	a9052fea 	stp	x10, x11, [sp, #80]
  4025c4:	a90637ec 	stp	x12, x13, [sp, #96]
  4025c8:	a9073fee 	stp	x14, x15, [sp, #112]
  4025cc:	a90847f0 	stp	x16, x17, [sp, #128]
  4025d0:	a9094ff2 	stp	x18, x19, [sp, #144]
  4025d4:	a90a57f4 	stp	x20, x21, [sp, #160]
  4025d8:	a90b5ff6 	stp	x22, x23, [sp, #176]
  4025dc:	a90c67f8 	stp	x24, x25, [sp, #192]
  4025e0:	a90d6ffa 	stp	x26, x27, [sp, #208]
  4025e4:	a90e77fc 	stp	x28, x29, [sp, #224]
  4025e8:	f9007bfe 	str	x30, [sp, #240]
  4025ec:	d538402a 	mrs	x10, elr_el1
  4025f0:	d538400b 	mrs	x11, spsr_el1
  4025f4:	a9102fea 	stp	x10, x11, [sp, #256]
  4025f8:	aa1f03e0 	mov	x0, xzr
  4025fc:	aa1f03e1 	mov	x1, xzr
  402600:	aa1f03e2 	mov	x2, xzr
  402604:	aa1f03e3 	mov	x3, xzr
  402608:	aa1f03e4 	mov	x4, xzr
  40260c:	aa1f03e5 	mov	x5, xzr
  402610:	aa1f03e6 	mov	x6, xzr
  402614:	aa1f03e7 	mov	x7, xzr
  402618:	aa1f03e8 	mov	x8, xzr
  40261c:	aa1f03e9 	mov	x9, xzr
  402620:	aa1f03ea 	mov	x10, xzr
  402624:	aa1f03eb 	mov	x11, xzr
  402628:	aa1f03ec 	mov	x12, xzr
  40262c:	aa1f03ed 	mov	x13, xzr
  402630:	aa1f03ee 	mov	x14, xzr
  402634:	aa1f03ef 	mov	x15, xzr
  402638:	aa1f03f0 	mov	x16, xzr
  40263c:	aa1f03f1 	mov	x17, xzr
  402640:	aa1f03f2 	mov	x18, xzr
  402644:	aa1f03f3 	mov	x19, xzr
  402648:	aa1f03f4 	mov	x20, xzr
  40264c:	aa1f03f5 	mov	x21, xzr
  402650:	aa1f03f6 	mov	x22, xzr
  402654:	aa1f03f7 	mov	x23, xzr
  402658:	aa1f03f8 	mov	x24, xzr
  40265c:	aa1f03f9 	mov	x25, xzr
  402660:	aa1f03fa 	mov	x26, xzr
  402664:	aa1f03fb 	mov	x27, xzr
  402668:	aa1f03fc 	mov	x28, xzr
  40266c:	aa1f03fd 	mov	x29, xzr
  402670:	d53bd04c 	mrs	x12, tpidr_el0
  402674:	f9407fed 	ldr	x13, [sp, #248]
  402678:	d5384109 	mrs	x9, sp_el0
  40267c:	d518410d 	msr	sp_el0, x13
  402680:	f9008bec 	str	x12, [sp, #272]
  402684:	f9007fe9 	str	x9, [sp, #248]
  402688:	910003e0 	mov	x0, sp
  40268c:	94001dba 	bl	409d74 <handle_el0t_64_error_exception>
  402690:	14000103 	b	402a9c <ret_to_user>

0000000000402694 <handle_el0t_32_sync>:
  402694:	d10463ff 	sub	sp, sp, #0x118
  402698:	a90007e0 	stp	x0, x1, [sp]
  40269c:	a9010fe2 	stp	x2, x3, [sp, #16]
  4026a0:	a90217e4 	stp	x4, x5, [sp, #32]
  4026a4:	a9031fe6 	stp	x6, x7, [sp, #48]
  4026a8:	a90427e8 	stp	x8, x9, [sp, #64]
  4026ac:	a9052fea 	stp	x10, x11, [sp, #80]
  4026b0:	a90637ec 	stp	x12, x13, [sp, #96]
  4026b4:	a9073fee 	stp	x14, x15, [sp, #112]
  4026b8:	a90847f0 	stp	x16, x17, [sp, #128]
  4026bc:	a9094ff2 	stp	x18, x19, [sp, #144]
  4026c0:	a90a57f4 	stp	x20, x21, [sp, #160]
  4026c4:	a90b5ff6 	stp	x22, x23, [sp, #176]
  4026c8:	a90c67f8 	stp	x24, x25, [sp, #192]
  4026cc:	a90d6ffa 	stp	x26, x27, [sp, #208]
  4026d0:	a90e77fc 	stp	x28, x29, [sp, #224]
  4026d4:	f9007bfe 	str	x30, [sp, #240]
  4026d8:	d538402a 	mrs	x10, elr_el1
  4026dc:	d538400b 	mrs	x11, spsr_el1
  4026e0:	a9102fea 	stp	x10, x11, [sp, #256]
  4026e4:	aa1f03e0 	mov	x0, xzr
  4026e8:	aa1f03e1 	mov	x1, xzr
  4026ec:	aa1f03e2 	mov	x2, xzr
  4026f0:	aa1f03e3 	mov	x3, xzr
  4026f4:	aa1f03e4 	mov	x4, xzr
  4026f8:	aa1f03e5 	mov	x5, xzr
  4026fc:	aa1f03e6 	mov	x6, xzr
  402700:	aa1f03e7 	mov	x7, xzr
  402704:	aa1f03e8 	mov	x8, xzr
  402708:	aa1f03e9 	mov	x9, xzr
  40270c:	aa1f03ea 	mov	x10, xzr
  402710:	aa1f03eb 	mov	x11, xzr
  402714:	aa1f03ec 	mov	x12, xzr
  402718:	aa1f03ed 	mov	x13, xzr
  40271c:	aa1f03ee 	mov	x14, xzr
  402720:	aa1f03ef 	mov	x15, xzr
  402724:	aa1f03f0 	mov	x16, xzr
  402728:	aa1f03f1 	mov	x17, xzr
  40272c:	aa1f03f2 	mov	x18, xzr
  402730:	aa1f03f3 	mov	x19, xzr
  402734:	aa1f03f4 	mov	x20, xzr
  402738:	aa1f03f5 	mov	x21, xzr
  40273c:	aa1f03f6 	mov	x22, xzr
  402740:	aa1f03f7 	mov	x23, xzr
  402744:	aa1f03f8 	mov	x24, xzr
  402748:	aa1f03f9 	mov	x25, xzr
  40274c:	aa1f03fa 	mov	x26, xzr
  402750:	aa1f03fb 	mov	x27, xzr
  402754:	aa1f03fc 	mov	x28, xzr
  402758:	aa1f03fd 	mov	x29, xzr
  40275c:	d53bd04c 	mrs	x12, tpidr_el0
  402760:	f9407fed 	ldr	x13, [sp, #248]
  402764:	d5384109 	mrs	x9, sp_el0
  402768:	d518410d 	msr	sp_el0, x13
  40276c:	f9008bec 	str	x12, [sp, #272]
  402770:	f9007fe9 	str	x9, [sp, #248]
  402774:	910003e0 	mov	x0, sp
  402778:	94001dae 	bl	409e30 <handle_el0t_32_sync_exception>
  40277c:	140000c8 	b	402a9c <ret_to_user>

0000000000402780 <handle_el0t_32_irq>:
  402780:	d10463ff 	sub	sp, sp, #0x118
  402784:	a90007e0 	stp	x0, x1, [sp]
  402788:	a9010fe2 	stp	x2, x3, [sp, #16]
  40278c:	a90217e4 	stp	x4, x5, [sp, #32]
  402790:	a9031fe6 	stp	x6, x7, [sp, #48]
  402794:	a90427e8 	stp	x8, x9, [sp, #64]
  402798:	a9052fea 	stp	x10, x11, [sp, #80]
  40279c:	a90637ec 	stp	x12, x13, [sp, #96]
  4027a0:	a9073fee 	stp	x14, x15, [sp, #112]
  4027a4:	a90847f0 	stp	x16, x17, [sp, #128]
  4027a8:	a9094ff2 	stp	x18, x19, [sp, #144]
  4027ac:	a90a57f4 	stp	x20, x21, [sp, #160]
  4027b0:	a90b5ff6 	stp	x22, x23, [sp, #176]
  4027b4:	a90c67f8 	stp	x24, x25, [sp, #192]
  4027b8:	a90d6ffa 	stp	x26, x27, [sp, #208]
  4027bc:	a90e77fc 	stp	x28, x29, [sp, #224]
  4027c0:	f9007bfe 	str	x30, [sp, #240]
  4027c4:	d538402a 	mrs	x10, elr_el1
  4027c8:	d538400b 	mrs	x11, spsr_el1
  4027cc:	a9102fea 	stp	x10, x11, [sp, #256]
  4027d0:	aa1f03e0 	mov	x0, xzr
  4027d4:	aa1f03e1 	mov	x1, xzr
  4027d8:	aa1f03e2 	mov	x2, xzr
  4027dc:	aa1f03e3 	mov	x3, xzr
  4027e0:	aa1f03e4 	mov	x4, xzr
  4027e4:	aa1f03e5 	mov	x5, xzr
  4027e8:	aa1f03e6 	mov	x6, xzr
  4027ec:	aa1f03e7 	mov	x7, xzr
  4027f0:	aa1f03e8 	mov	x8, xzr
  4027f4:	aa1f03e9 	mov	x9, xzr
  4027f8:	aa1f03ea 	mov	x10, xzr
  4027fc:	aa1f03eb 	mov	x11, xzr
  402800:	aa1f03ec 	mov	x12, xzr
  402804:	aa1f03ed 	mov	x13, xzr
  402808:	aa1f03ee 	mov	x14, xzr
  40280c:	aa1f03ef 	mov	x15, xzr
  402810:	aa1f03f0 	mov	x16, xzr
  402814:	aa1f03f1 	mov	x17, xzr
  402818:	aa1f03f2 	mov	x18, xzr
  40281c:	aa1f03f3 	mov	x19, xzr
  402820:	aa1f03f4 	mov	x20, xzr
  402824:	aa1f03f5 	mov	x21, xzr
  402828:	aa1f03f6 	mov	x22, xzr
  40282c:	aa1f03f7 	mov	x23, xzr
  402830:	aa1f03f8 	mov	x24, xzr
  402834:	aa1f03f9 	mov	x25, xzr
  402838:	aa1f03fa 	mov	x26, xzr
  40283c:	aa1f03fb 	mov	x27, xzr
  402840:	aa1f03fc 	mov	x28, xzr
  402844:	aa1f03fd 	mov	x29, xzr
  402848:	d53bd04c 	mrs	x12, tpidr_el0
  40284c:	f9407fed 	ldr	x13, [sp, #248]
  402850:	d5384109 	mrs	x9, sp_el0
  402854:	d518410d 	msr	sp_el0, x13
  402858:	f9008bec 	str	x12, [sp, #272]
  40285c:	f9007fe9 	str	x9, [sp, #248]
  402860:	910003e0 	mov	x0, sp
  402864:	94001da2 	bl	409eec <handle_el0t_32_irq_exception>
  402868:	1400008d 	b	402a9c <ret_to_user>

000000000040286c <handle_el0t_32_fiq>:
  40286c:	d10463ff 	sub	sp, sp, #0x118
  402870:	a90007e0 	stp	x0, x1, [sp]
  402874:	a9010fe2 	stp	x2, x3, [sp, #16]
  402878:	a90217e4 	stp	x4, x5, [sp, #32]
  40287c:	a9031fe6 	stp	x6, x7, [sp, #48]
  402880:	a90427e8 	stp	x8, x9, [sp, #64]
  402884:	a9052fea 	stp	x10, x11, [sp, #80]
  402888:	a90637ec 	stp	x12, x13, [sp, #96]
  40288c:	a9073fee 	stp	x14, x15, [sp, #112]
  402890:	a90847f0 	stp	x16, x17, [sp, #128]
  402894:	a9094ff2 	stp	x18, x19, [sp, #144]
  402898:	a90a57f4 	stp	x20, x21, [sp, #160]
  40289c:	a90b5ff6 	stp	x22, x23, [sp, #176]
  4028a0:	a90c67f8 	stp	x24, x25, [sp, #192]
  4028a4:	a90d6ffa 	stp	x26, x27, [sp, #208]
  4028a8:	a90e77fc 	stp	x28, x29, [sp, #224]
  4028ac:	f9007bfe 	str	x30, [sp, #240]
  4028b0:	d538402a 	mrs	x10, elr_el1
  4028b4:	d538400b 	mrs	x11, spsr_el1
  4028b8:	a9102fea 	stp	x10, x11, [sp, #256]
  4028bc:	aa1f03e0 	mov	x0, xzr
  4028c0:	aa1f03e1 	mov	x1, xzr
  4028c4:	aa1f03e2 	mov	x2, xzr
  4028c8:	aa1f03e3 	mov	x3, xzr
  4028cc:	aa1f03e4 	mov	x4, xzr
  4028d0:	aa1f03e5 	mov	x5, xzr
  4028d4:	aa1f03e6 	mov	x6, xzr
  4028d8:	aa1f03e7 	mov	x7, xzr
  4028dc:	aa1f03e8 	mov	x8, xzr
  4028e0:	aa1f03e9 	mov	x9, xzr
  4028e4:	aa1f03ea 	mov	x10, xzr
  4028e8:	aa1f03eb 	mov	x11, xzr
  4028ec:	aa1f03ec 	mov	x12, xzr
  4028f0:	aa1f03ed 	mov	x13, xzr
  4028f4:	aa1f03ee 	mov	x14, xzr
  4028f8:	aa1f03ef 	mov	x15, xzr
  4028fc:	aa1f03f0 	mov	x16, xzr
  402900:	aa1f03f1 	mov	x17, xzr
  402904:	aa1f03f2 	mov	x18, xzr
  402908:	aa1f03f3 	mov	x19, xzr
  40290c:	aa1f03f4 	mov	x20, xzr
  402910:	aa1f03f5 	mov	x21, xzr
  402914:	aa1f03f6 	mov	x22, xzr
  402918:	aa1f03f7 	mov	x23, xzr
  40291c:	aa1f03f8 	mov	x24, xzr
  402920:	aa1f03f9 	mov	x25, xzr
  402924:	aa1f03fa 	mov	x26, xzr
  402928:	aa1f03fb 	mov	x27, xzr
  40292c:	aa1f03fc 	mov	x28, xzr
  402930:	aa1f03fd 	mov	x29, xzr
  402934:	d53bd04c 	mrs	x12, tpidr_el0
  402938:	f9407fed 	ldr	x13, [sp, #248]
  40293c:	d5384109 	mrs	x9, sp_el0
  402940:	d518410d 	msr	sp_el0, x13
  402944:	f9008bec 	str	x12, [sp, #272]
  402948:	f9007fe9 	str	x9, [sp, #248]
  40294c:	910003e0 	mov	x0, sp
  402950:	94001d96 	bl	409fa8 <handle_el0t_32_fiq_exception>
  402954:	14000052 	b	402a9c <ret_to_user>

0000000000402958 <handle_el0t_32_error>:
  402958:	d10463ff 	sub	sp, sp, #0x118
  40295c:	a90007e0 	stp	x0, x1, [sp]
  402960:	a9010fe2 	stp	x2, x3, [sp, #16]
  402964:	a90217e4 	stp	x4, x5, [sp, #32]
  402968:	a9031fe6 	stp	x6, x7, [sp, #48]
  40296c:	a90427e8 	stp	x8, x9, [sp, #64]
  402970:	a9052fea 	stp	x10, x11, [sp, #80]
  402974:	a90637ec 	stp	x12, x13, [sp, #96]
  402978:	a9073fee 	stp	x14, x15, [sp, #112]
  40297c:	a90847f0 	stp	x16, x17, [sp, #128]
  402980:	a9094ff2 	stp	x18, x19, [sp, #144]
  402984:	a90a57f4 	stp	x20, x21, [sp, #160]
  402988:	a90b5ff6 	stp	x22, x23, [sp, #176]
  40298c:	a90c67f8 	stp	x24, x25, [sp, #192]
  402990:	a90d6ffa 	stp	x26, x27, [sp, #208]
  402994:	a90e77fc 	stp	x28, x29, [sp, #224]
  402998:	f9007bfe 	str	x30, [sp, #240]
  40299c:	d538402a 	mrs	x10, elr_el1
  4029a0:	d538400b 	mrs	x11, spsr_el1
  4029a4:	a9102fea 	stp	x10, x11, [sp, #256]
  4029a8:	aa1f03e0 	mov	x0, xzr
  4029ac:	aa1f03e1 	mov	x1, xzr
  4029b0:	aa1f03e2 	mov	x2, xzr
  4029b4:	aa1f03e3 	mov	x3, xzr
  4029b8:	aa1f03e4 	mov	x4, xzr
  4029bc:	aa1f03e5 	mov	x5, xzr
  4029c0:	aa1f03e6 	mov	x6, xzr
  4029c4:	aa1f03e7 	mov	x7, xzr
  4029c8:	aa1f03e8 	mov	x8, xzr
  4029cc:	aa1f03e9 	mov	x9, xzr
  4029d0:	aa1f03ea 	mov	x10, xzr
  4029d4:	aa1f03eb 	mov	x11, xzr
  4029d8:	aa1f03ec 	mov	x12, xzr
  4029dc:	aa1f03ed 	mov	x13, xzr
  4029e0:	aa1f03ee 	mov	x14, xzr
  4029e4:	aa1f03ef 	mov	x15, xzr
  4029e8:	aa1f03f0 	mov	x16, xzr
  4029ec:	aa1f03f1 	mov	x17, xzr
  4029f0:	aa1f03f2 	mov	x18, xzr
  4029f4:	aa1f03f3 	mov	x19, xzr
  4029f8:	aa1f03f4 	mov	x20, xzr
  4029fc:	aa1f03f5 	mov	x21, xzr
  402a00:	aa1f03f6 	mov	x22, xzr
  402a04:	aa1f03f7 	mov	x23, xzr
  402a08:	aa1f03f8 	mov	x24, xzr
  402a0c:	aa1f03f9 	mov	x25, xzr
  402a10:	aa1f03fa 	mov	x26, xzr
  402a14:	aa1f03fb 	mov	x27, xzr
  402a18:	aa1f03fc 	mov	x28, xzr
  402a1c:	aa1f03fd 	mov	x29, xzr
  402a20:	d53bd04c 	mrs	x12, tpidr_el0
  402a24:	f9407fed 	ldr	x13, [sp, #248]
  402a28:	d5384109 	mrs	x9, sp_el0
  402a2c:	d518410d 	msr	sp_el0, x13
  402a30:	f9008bec 	str	x12, [sp, #272]
  402a34:	f9007fe9 	str	x9, [sp, #248]
  402a38:	910003e0 	mov	x0, sp
  402a3c:	94001d8a 	bl	40a064 <handle_el0t_32_error_exception>
  402a40:	14000017 	b	402a9c <ret_to_user>

0000000000402a44 <ret_to_kernel>:
  402a44:	a94f27fe 	ldp	x30, x9, [sp, #240]
  402a48:	a9502fea 	ldp	x10, x11, [sp, #256]
  402a4c:	d518402a 	msr	elr_el1, x10
  402a50:	d518400b 	msr	spsr_el1, x11
  402a54:	f9408bec 	ldr	x12, [sp, #272]
  402a58:	a94e77fc 	ldp	x28, x29, [sp, #224]
  402a5c:	a94d6ffa 	ldp	x26, x27, [sp, #208]
  402a60:	a94c67f8 	ldp	x24, x25, [sp, #192]
  402a64:	a94b5ff6 	ldp	x22, x23, [sp, #176]
  402a68:	a94a57f4 	ldp	x20, x21, [sp, #160]
  402a6c:	a9494ff2 	ldp	x18, x19, [sp, #144]
  402a70:	a94847f0 	ldp	x16, x17, [sp, #128]
  402a74:	a9473fee 	ldp	x14, x15, [sp, #112]
  402a78:	a94637ec 	ldp	x12, x13, [sp, #96]
  402a7c:	a9452fea 	ldp	x10, x11, [sp, #80]
  402a80:	a94427e8 	ldp	x8, x9, [sp, #64]
  402a84:	a9431fe6 	ldp	x6, x7, [sp, #48]
  402a88:	a94217e4 	ldp	x4, x5, [sp, #32]
  402a8c:	a9410fe2 	ldp	x2, x3, [sp, #16]
  402a90:	a94007e0 	ldp	x0, x1, [sp]
  402a94:	910463ff 	add	sp, sp, #0x118
  402a98:	d69f03e0 	eret

0000000000402a9c <ret_to_user>:
  402a9c:	a94f27fe 	ldp	x30, x9, [sp, #240]
  402aa0:	a9502fea 	ldp	x10, x11, [sp, #256]
  402aa4:	d518402a 	msr	elr_el1, x10
  402aa8:	d518400b 	msr	spsr_el1, x11
  402aac:	f9408bec 	ldr	x12, [sp, #272]
  402ab0:	d51bd04c 	msr	tpidr_el0, x12
  402ab4:	d538410d 	mrs	x13, sp_el0
  402ab8:	f9007fed 	str	x13, [sp, #248]
  402abc:	d5184109 	msr	sp_el0, x9
  402ac0:	a94e77fc 	ldp	x28, x29, [sp, #224]
  402ac4:	a94d6ffa 	ldp	x26, x27, [sp, #208]
  402ac8:	a94c67f8 	ldp	x24, x25, [sp, #192]
  402acc:	a94b5ff6 	ldp	x22, x23, [sp, #176]
  402ad0:	a94a57f4 	ldp	x20, x21, [sp, #160]
  402ad4:	a9494ff2 	ldp	x18, x19, [sp, #144]
  402ad8:	a94847f0 	ldp	x16, x17, [sp, #128]
  402adc:	a9473fee 	ldp	x14, x15, [sp, #112]
  402ae0:	a94637ec 	ldp	x12, x13, [sp, #96]
  402ae4:	a9452fea 	ldp	x10, x11, [sp, #80]
  402ae8:	a94427e8 	ldp	x8, x9, [sp, #64]
  402aec:	a9431fe6 	ldp	x6, x7, [sp, #48]
  402af0:	a94217e4 	ldp	x4, x5, [sp, #32]
  402af4:	a9410fe2 	ldp	x2, x3, [sp, #16]
  402af8:	a94007e0 	ldp	x0, x1, [sp]
  402afc:	910463ff 	add	sp, sp, #0x118
  402b00:	d69f03e0 	eret

0000000000402b04 <ret_to_first_user>:
  402b04:	9100001f 	mov	sp, x0
  402b08:	17ffffe5 	b	402a9c <ret_to_user>

0000000000402b0c <context_vm_entry>:
  402b0c:	a9502c0a 	ldp	x10, x11, [x0, #256]
  402b10:	d51c402a 	msr	elr_el2, x10
  402b14:	d51c400b 	msr	spsr_el2, x11
  402b18:	f940781e 	ldr	x30, [x0, #240]
  402b1c:	a94e741c 	ldp	x28, x29, [x0, #224]
  402b20:	a94d6c1a 	ldp	x26, x27, [x0, #208]
  402b24:	a94c6418 	ldp	x24, x25, [x0, #192]
  402b28:	a94b5c16 	ldp	x22, x23, [x0, #176]
  402b2c:	a94a5414 	ldp	x20, x21, [x0, #160]
  402b30:	a9494c12 	ldp	x18, x19, [x0, #144]
  402b34:	a9484410 	ldp	x16, x17, [x0, #128]
  402b38:	a9473c0e 	ldp	x14, x15, [x0, #112]
  402b3c:	a946340c 	ldp	x12, x13, [x0, #96]
  402b40:	a9452c0a 	ldp	x10, x11, [x0, #80]
  402b44:	a9442408 	ldp	x8, x9, [x0, #64]
  402b48:	a9431c06 	ldp	x6, x7, [x0, #48]
  402b4c:	a9421404 	ldp	x4, x5, [x0, #32]
  402b50:	a9410c02 	ldp	x2, x3, [x0, #16]
  402b54:	a9400400 	ldp	x0, x1, [x0]
  402b58:	d69f03e0 	eret

0000000000402b5c <_ZN10hypercraft4arch11vcpus_array19VcpusArray$LT$H$GT$3new17hd306597bbd773ee1E>:
  402b5c:	d10103ff 	sub	sp, sp, #0x40
  402b60:	a9034ffe 	stp	x30, x19, [sp, #48]
  402b64:	f00004e8 	adrp	x8, 4a1000 <_ZN7axalloc16GLOBAL_ALLOCATOR17h04b3423754977f4bE+0x23000>
  402b68:	aa0003f3 	mov	x19, x0
  402b6c:	910083e0 	add	x0, sp, #0x20
  402b70:	52800201 	mov	w1, #0x10                  	// #16
  402b74:	5285e002 	mov	w2, #0x2f00                	// #12032
  402b78:	397b311f 	ldrb	wzr, [x8, #3788]
  402b7c:	9400161e 	bl	4083f4 <_ZN7axalloc15GlobalAllocator5alloc17h8f644e423ee6a768E>
  402b80:	394083e8 	ldrb	w8, [sp, #32]
  402b84:	350002a8 	cbnz	w8, 402bd8 <_ZN10hypercraft4arch11vcpus_array19VcpusArray$LT$H$GT$3new17hd306597bbd773ee1E+0x7c>
  402b88:	f94017e8 	ldr	x8, [sp, #40]
  402b8c:	5282330a 	mov	w10, #0x1198                	// #4504
  402b90:	52800089 	mov	w9, #0x4                   	// #4
  402b94:	5284670b 	mov	w11, #0x2338                	// #9016
  402b98:	8b0a010a 	add	x10, x8, x10
  402b9c:	8b0b010b 	add	x11, x8, x11
  402ba0:	39176109 	strb	w9, [x8, #1496]
  402ba4:	392ee109 	strb	w9, [x8, #3000]
  402ba8:	39000149 	strb	w9, [x10]
  402bac:	39178149 	strb	w9, [x10, #1504]
  402bb0:	392f0149 	strb	w9, [x10, #3008]
  402bb4:	5280010a 	mov	w10, #0x8                   	// #8
  402bb8:	39000169 	strb	w9, [x11]
  402bbc:	39178169 	strb	w9, [x11, #1504]
  402bc0:	a9002a68 	stp	x8, x10, [x19]
  402bc4:	a9017e6a 	stp	x10, xzr, [x19, #16]
  402bc8:	a9434ffe 	ldp	x30, x19, [sp, #48]
  402bcc:	392f0169 	strb	w9, [x11, #3008]
  402bd0:	910103ff 	add	sp, sp, #0x40
  402bd4:	d65f03c0 	ret
  402bd8:	5285e000 	mov	w0, #0x2f00                	// #12032
  402bdc:	9400a727 	bl	42c878 <__rust_alloc_error_handler>
  402be0:	d4200020 	brk	#0x1

0000000000402be4 <_ZN10hypercraft4arch3cpu15PerCpu$LT$H$GT$11create_vcpu17hfd7f3730d85f6220E>:
  402be4:	f81d0ffe 	str	x30, [sp, #-48]!
  402be8:	a90157f6 	stp	x22, x21, [sp, #16]
  402bec:	a9024ff4 	stp	x20, x19, [sp, #32]
  402bf0:	aa0103f4 	mov	x20, x1
  402bf4:	aa0003f3 	mov	x19, x0
  402bf8:	9117c028 	add	x8, x1, #0x5f0
  402bfc:	c85f7d15 	ldxr	x21, [x8]
  402c00:	910006a9 	add	x9, x21, #0x1
  402c04:	c80a7d09 	stxr	w10, x9, [x8]
  402c08:	35ffffaa 	cbnz	w10, 402bfc <_ZN10hypercraft4arch3cpu15PerCpu$LT$H$GT$11create_vcpu17hfd7f3730d85f6220E+0x18>
  402c0c:	14000002 	b	402c14 <_ZN10hypercraft4arch3cpu15PerCpu$LT$H$GT$11create_vcpu17hfd7f3730d85f6220E+0x30>
  402c10:	d5033fdf 	isb
  402c14:	9117e288 	add	x8, x20, #0x5f8
  402c18:	c8dffd08 	ldar	x8, [x8]
  402c1c:	eb15011f 	cmp	x8, x21
  402c20:	54ffff81 	b.ne	402c10 <_ZN10hypercraft4arch3cpu15PerCpu$LT$H$GT$11create_vcpu17hfd7f3730d85f6220E+0x2c>  // b.any
  402c24:	f9430e88 	ldr	x8, [x20, #1560]
  402c28:	f9430689 	ldr	x9, [x20, #1544]
  402c2c:	eb09011f 	cmp	x8, x9
  402c30:	540000a1 	b.ne	402c44 <_ZN10hypercraft4arch3cpu15PerCpu$LT$H$GT$11create_vcpu17hfd7f3730d85f6220E+0x60>  // b.any
  402c34:	91180280 	add	x0, x20, #0x600
  402c38:	940001a2 	bl	4032c0 <_ZN5alloc11collections9vec_deque21VecDeque$LT$T$C$A$GT$4grow17h08d7cefe07e6dd26E>
  402c3c:	f9430e88 	ldr	x8, [x20, #1560]
  402c40:	f9430689 	ldr	x9, [x20, #1544]
  402c44:	f9430a8a 	ldr	x10, [x20, #1552]
  402c48:	910006ab 	add	x11, x21, #0x1
  402c4c:	9117e28c 	add	x12, x20, #0x5f8
  402c50:	910e0260 	add	x0, x19, #0x380
  402c54:	2a1f03e1 	mov	w1, wzr
  402c58:	52804002 	mov	w2, #0x200                 	// #512
  402c5c:	8b08014a 	add	x10, x10, x8
  402c60:	91000508 	add	x8, x8, #0x1
  402c64:	eb09015f 	cmp	x10, x9
  402c68:	9a8933e9 	csel	x9, xzr, x9, cc  // cc = lo, ul, last
  402c6c:	cb090149 	sub	x9, x10, x9
  402c70:	f943028a 	ldr	x10, [x20, #1536]
  402c74:	f829795f 	str	xzr, [x10, x9, lsl #3]
  402c78:	f9030e88 	str	x8, [x20, #1560]
  402c7c:	c89ffd8b 	stlr	x11, [x12]
  402c80:	f9400294 	ldr	x20, [x20]
  402c84:	d53ccb28 	mrs	x8, ich_vtr_el2
  402c88:	d35d7d08 	ubfx	x8, x8, #29, #3
  402c8c:	11000515 	add	w21, w8, #0x1
  402c90:	9400aa08 	bl	42d4b0 <memset>
  402c94:	aa1303e0 	mov	x0, x19
  402c98:	2a1f03e1 	mov	w1, wzr
  402c9c:	52802102 	mov	w2, #0x108                 	// #264
  402ca0:	9400aa04 	bl	42d4b0 <memset>
  402ca4:	528078b6 	mov	w22, #0x3c5                 	// #965
  402ca8:	91044260 	add	x0, x19, #0x110
  402cac:	2a1f03e1 	mov	w1, wzr
  402cb0:	52802102 	mov	w2, #0x108                 	// #264
  402cb4:	f9008676 	str	x22, [x19, #264]
  402cb8:	9400a9fe 	bl	42d4b0 <memset>
  402cbc:	910ba260 	add	x0, x19, #0x2e8
  402cc0:	2a1f03e1 	mov	w1, wzr
  402cc4:	52800a02 	mov	w2, #0x50                  	// #80
  402cc8:	f9010e76 	str	x22, [x19, #536]
  402ccc:	f901127f 	str	xzr, [x19, #544]
  402cd0:	f901167f 	str	xzr, [x19, #552]
  402cd4:	f9011a7f 	str	xzr, [x19, #560]
  402cd8:	b9023a7f 	str	wzr, [x19, #568]
  402cdc:	f901227f 	str	xzr, [x19, #576]
  402ce0:	f901267f 	str	xzr, [x19, #584]
  402ce4:	f9012a7f 	str	xzr, [x19, #592]
  402ce8:	b9025a7f 	str	wzr, [x19, #600]
  402cec:	f901327f 	str	xzr, [x19, #608]
  402cf0:	f901367f 	str	xzr, [x19, #616]
  402cf4:	f9013a7f 	str	xzr, [x19, #624]
  402cf8:	f9013e7f 	str	xzr, [x19, #632]
  402cfc:	f901427f 	str	xzr, [x19, #640]
  402d00:	f901467f 	str	xzr, [x19, #648]
  402d04:	b902927f 	str	wzr, [x19, #656]
  402d08:	f9014e7f 	str	xzr, [x19, #664]
  402d0c:	f901527f 	str	xzr, [x19, #672]
  402d10:	f901567f 	str	xzr, [x19, #680]
  402d14:	b902b27f 	str	wzr, [x19, #688]
  402d18:	b902e27f 	str	wzr, [x19, #736]
  402d1c:	f9016e7f 	str	xzr, [x19, #728]
  402d20:	f9016a7f 	str	xzr, [x19, #720]
  402d24:	f901667f 	str	xzr, [x19, #712]
  402d28:	f901627f 	str	xzr, [x19, #704]
  402d2c:	f9015e7f 	str	xzr, [x19, #696]
  402d30:	9400a9e0 	bl	42d4b0 <memset>
  402d34:	d2800048 	mov	x8, #0x2                   	// #2
  402d38:	b2607fe9 	mov	x9, #0xffffffff00000000    	// #-4294967296
  402d3c:	f2c01fe8 	movk	x8, #0xff, lsl #32
  402d40:	1280000a 	mov	w10, #0xffffffff            	// #-1
  402d44:	f901a27f 	str	xzr, [x19, #832]
  402d48:	f901aa69 	str	x9, [x19, #848]
  402d4c:	f9019e68 	str	x8, [x19, #824]
  402d50:	528000a8 	mov	w8, #0x5                   	// #5
  402d54:	b903726a 	str	w10, [x19, #880]
  402d58:	b9036e6a 	str	w10, [x19, #876]
  402d5c:	f901be68 	str	x8, [x19, #888]
  402d60:	52800028 	mov	w8, #0x1                   	// #1
  402d64:	b9036a6a 	str	w10, [x19, #872]
  402d68:	b903666a 	str	w10, [x19, #868]
  402d6c:	b903626a 	str	w10, [x19, #864]
  402d70:	b9035e6a 	str	w10, [x19, #860]
  402d74:	b9035a6a 	str	w10, [x19, #856]
  402d78:	f901a67f 	str	xzr, [x19, #840]
  402d7c:	f902c27f 	str	xzr, [x19, #1408]
  402d80:	f902c67f 	str	xzr, [x19, #1416]
  402d84:	f902ca7f 	str	xzr, [x19, #1424]
  402d88:	f902ce7f 	str	xzr, [x19, #1432]
  402d8c:	f902d268 	str	x8, [x19, #1440]
  402d90:	b905aa7f 	str	wzr, [x19, #1448]
  402d94:	b905ae75 	str	w21, [x19, #1452]
  402d98:	b905b27f 	str	wzr, [x19, #1456]
  402d9c:	f902e27f 	str	xzr, [x19, #1472]
  402da0:	f902e67f 	str	xzr, [x19, #1480]
  402da4:	f902ea74 	str	x20, [x19, #1488]
  402da8:	3917627f 	strb	wzr, [x19, #1496]
  402dac:	a9424ff4 	ldp	x20, x19, [sp, #32]
  402db0:	a94157f6 	ldp	x22, x21, [sp, #16]
  402db4:	f84307fe 	ldr	x30, [sp], #48
  402db8:	d65f03c0 	ret

0000000000402dbc <_ZN42_$LT$$RF$T$u20$as$u20$core..fmt..Debug$GT$3fmt17hf73d5d2794dd4ce8E>:
  402dbc:	d10243ff 	sub	sp, sp, #0x90
  402dc0:	f90043fe 	str	x30, [sp, #128]
  402dc4:	b9403429 	ldr	w9, [x1, #52]
  402dc8:	f9400008 	ldr	x8, [x0]
  402dcc:	37200289 	tbnz	w9, #4, 402e1c <_ZN42_$LT$$RF$T$u20$as$u20$core..fmt..Debug$GT$3fmt17hf73d5d2794dd4ce8E+0x60>
  402dd0:	37280489 	tbnz	w9, #5, 402e60 <_ZN42_$LT$$RF$T$u20$as$u20$core..fmt..Debug$GT$3fmt17hf73d5d2794dd4ce8E+0xa4>
  402dd4:	39400108 	ldrb	w8, [x8]
  402dd8:	f101911f 	cmp	x8, #0x64
  402ddc:	54000823 	b.cc	402ee0 <_ZN42_$LT$$RF$T$u20$as$u20$core..fmt..Debug$GT$3fmt17hf73d5d2794dd4ce8E+0x124>  // b.lo, b.ul, b.last
  402de0:	52800529 	mov	w9, #0x29                  	// #41
  402de4:	12800c6a 	mov	w10, #0xffffff9c            	// #-100
  402de8:	1b097d09 	mul	w9, w8, w9
  402dec:	530c7d2b 	lsr	w11, w9, #12
  402df0:	d503201f 	nop
  402df4:	10181389 	adr	x9, 433064 <etext+0x5064>
  402df8:	1b0a2168 	madd	w8, w11, w10, w8
  402dfc:	8b280528 	add	x8, x9, w8, uxtb #1
  402e00:	52800489 	mov	w9, #0x24                  	// #36
  402e04:	3940050a 	ldrb	w10, [x8, #1]
  402e08:	3940010c 	ldrb	w12, [x8]
  402e0c:	2a0b03e8 	mov	w8, w11
  402e10:	39009bea 	strb	w10, [sp, #38]
  402e14:	390097ec 	strb	w12, [sp, #37]
  402e18:	14000035 	b	402eec <_ZN42_$LT$$RF$T$u20$as$u20$core..fmt..Debug$GT$3fmt17hf73d5d2794dd4ce8E+0x130>
  402e1c:	39400108 	ldrb	w8, [x8]
  402e20:	52800fe9 	mov	w9, #0x7f                  	// #127
  402e24:	52800aea 	mov	w10, #0x57                  	// #87
  402e28:	5280060b 	mov	w11, #0x30                  	// #48
  402e2c:	910003ec 	mov	x12, sp
  402e30:	12000d0d 	and	w13, w8, #0xf
  402e34:	53047d0e 	lsr	w14, w8, #4
  402e38:	710029bf 	cmp	w13, #0xa
  402e3c:	aa0903e0 	mov	x0, x9
  402e40:	1a8a316f 	csel	w15, w11, w10, cc  // cc = lo, ul, last
  402e44:	7100411f 	cmp	w8, #0x10
  402e48:	d1000529 	sub	x9, x9, #0x1
  402e4c:	2a0e03e8 	mov	w8, w14
  402e50:	0b0d01ed 	add	w13, w15, w13
  402e54:	3820698d 	strb	w13, [x12, x0]
  402e58:	54fffec2 	b.cs	402e30 <_ZN42_$LT$$RF$T$u20$as$u20$core..fmt..Debug$GT$3fmt17hf73d5d2794dd4ce8E+0x74>  // b.hs, b.nlast
  402e5c:	14000011 	b	402ea0 <_ZN42_$LT$$RF$T$u20$as$u20$core..fmt..Debug$GT$3fmt17hf73d5d2794dd4ce8E+0xe4>
  402e60:	39400108 	ldrb	w8, [x8]
  402e64:	52800fe9 	mov	w9, #0x7f                  	// #127
  402e68:	528006ea 	mov	w10, #0x37                  	// #55
  402e6c:	5280060b 	mov	w11, #0x30                  	// #48
  402e70:	910003ec 	mov	x12, sp
  402e74:	12000d0d 	and	w13, w8, #0xf
  402e78:	53047d0e 	lsr	w14, w8, #4
  402e7c:	710029bf 	cmp	w13, #0xa
  402e80:	aa0903e0 	mov	x0, x9
  402e84:	1a8a316f 	csel	w15, w11, w10, cc  // cc = lo, ul, last
  402e88:	7100411f 	cmp	w8, #0x10
  402e8c:	d1000529 	sub	x9, x9, #0x1
  402e90:	2a0e03e8 	mov	w8, w14
  402e94:	0b0d01ed 	add	w13, w15, w13
  402e98:	3820698d 	strb	w13, [x12, x0]
  402e9c:	54fffec2 	b.cs	402e74 <_ZN42_$LT$$RF$T$u20$as$u20$core..fmt..Debug$GT$3fmt17hf73d5d2794dd4ce8E+0xb8>  // b.hs, b.nlast
  402ea0:	f102001f 	cmp	x0, #0x80
  402ea4:	54000568 	b.hi	402f50 <_ZN42_$LT$$RF$T$u20$as$u20$core..fmt..Debug$GT$3fmt17hf73d5d2794dd4ce8E+0x194>  // b.pmore
  402ea8:	91000408 	add	x8, x0, #0x1
  402eac:	52801029 	mov	w9, #0x81                  	// #129
  402eb0:	910003ea 	mov	x10, sp
  402eb4:	cb080125 	sub	x5, x9, x8
  402eb8:	8b000144 	add	x4, x10, x0
  402ebc:	d503201f 	nop
  402ec0:	10180d02 	adr	x2, 433060 <etext+0x5060>
  402ec4:	aa0103e0 	mov	x0, x1
  402ec8:	52800021 	mov	w1, #0x1                   	// #1
  402ecc:	52800043 	mov	w3, #0x2                   	// #2
  402ed0:	94009385 	bl	427ce4 <_ZN4core3fmt9Formatter12pad_integral17h7bce63ec766e5eeeE>
  402ed4:	f94043fe 	ldr	x30, [sp, #128]
  402ed8:	910243ff 	add	sp, sp, #0x90
  402edc:	d65f03c0 	ret
  402ee0:	7100291f 	cmp	w8, #0xa
  402ee4:	540000c2 	b.cs	402efc <_ZN42_$LT$$RF$T$u20$as$u20$core..fmt..Debug$GT$3fmt17hf73d5d2794dd4ce8E+0x140>  // b.hs, b.nlast
  402ee8:	528004c9 	mov	w9, #0x26                  	// #38
  402eec:	321c0508 	orr	w8, w8, #0x30
  402ef0:	910003ea 	mov	x10, sp
  402ef4:	38296948 	strb	w8, [x10, x9]
  402ef8:	14000009 	b	402f1c <_ZN42_$LT$$RF$T$u20$as$u20$core..fmt..Debug$GT$3fmt17hf73d5d2794dd4ce8E+0x160>
  402efc:	d503201f 	nop
  402f00:	10180b29 	adr	x9, 433064 <etext+0x5064>
  402f04:	8b080528 	add	x8, x9, x8, lsl #1
  402f08:	528004a9 	mov	w9, #0x25                  	// #37
  402f0c:	3940050a 	ldrb	w10, [x8, #1]
  402f10:	39400108 	ldrb	w8, [x8]
  402f14:	39009bea 	strb	w10, [sp, #38]
  402f18:	390097e8 	strb	w8, [sp, #37]
  402f1c:	910003e8 	mov	x8, sp
  402f20:	528004ea 	mov	w10, #0x27                  	// #39
  402f24:	8b090104 	add	x4, x8, x9
  402f28:	cb090145 	sub	x5, x10, x9
  402f2c:	d503201f 	nop
  402f30:	1018b842 	adr	x2, 434638 <_ZN4core7unicode12unicode_data15grapheme_extend7OFFSETS17h7af8ccc2b809066cE+0x9fc>
  402f34:	aa0103e0 	mov	x0, x1
  402f38:	52800021 	mov	w1, #0x1                   	// #1
  402f3c:	aa1f03e3 	mov	x3, xzr
  402f40:	94009369 	bl	427ce4 <_ZN4core3fmt9Formatter12pad_integral17h7bce63ec766e5eeeE>
  402f44:	f94043fe 	ldr	x30, [sp, #128]
  402f48:	910243ff 	add	sp, sp, #0x90
  402f4c:	d65f03c0 	ret
  402f50:	d503201f 	nop
  402f54:	101807a2 	adr	x2, 433048 <etext+0x5048>
  402f58:	52801001 	mov	w1, #0x80                  	// #128
  402f5c:	940092e1 	bl	427ae0 <_ZN4core5slice5index26slice_start_index_len_fail17h36fca5bfd6ef1204E>
  402f60:	d4200020 	brk	#0x1

0000000000402f64 <_ZN4core5array69_$LT$impl$u20$core..fmt..Debug$u20$for$u20$$u5b$T$u3b$$u20$N$u5d$$GT$3fmt17h9eb4ecf3e91004d8E>:
  402f64:	d10103ff 	sub	sp, sp, #0x40
  402f68:	a90257fe 	stp	x30, x21, [sp, #32]
  402f6c:	a9034ff4 	stp	x20, x19, [sp, #48]
  402f70:	aa0003f4 	mov	x20, x0
  402f74:	aa0103f5 	mov	x21, x1
  402f78:	a9422020 	ldp	x0, x8, [x1, #32]
  402f7c:	d503201f 	nop
  402f80:	3017f801 	adr	x1, 432e81 <etext+0x4e81>
  402f84:	52800022 	mov	w2, #0x1                   	// #1
  402f88:	52800033 	mov	w19, #0x1                   	// #1
  402f8c:	f9400d08 	ldr	x8, [x8, #24]
  402f90:	d63f0100 	blr	x8
  402f94:	f90007f5 	str	x21, [sp, #8]
  402f98:	d503201f 	nop
  402f9c:	10fff115 	adr	x21, 402dbc <_ZN42_$LT$$RF$T$u20$as$u20$core..fmt..Debug$GT$3fmt17hf73d5d2794dd4ce8E>
  402fa0:	390043e0 	strb	w0, [sp, #16]
  402fa4:	910023e0 	add	x0, sp, #0x8
  402fa8:	910063e1 	add	x1, sp, #0x18
  402fac:	aa1503e2 	mov	x2, x21
  402fb0:	390047ff 	strb	wzr, [sp, #17]
  402fb4:	f9000ff4 	str	x20, [sp, #24]
  402fb8:	9400999e 	bl	429630 <_ZN4core3fmt8builders8DebugSet5entry17hc9ac70a2e6d2a1aaE>
  402fbc:	91000688 	add	x8, x20, #0x1
  402fc0:	910023e0 	add	x0, sp, #0x8
  402fc4:	910063e1 	add	x1, sp, #0x18
  402fc8:	aa1503e2 	mov	x2, x21
  402fcc:	f9000fe8 	str	x8, [sp, #24]
  402fd0:	94009998 	bl	429630 <_ZN4core3fmt8builders8DebugSet5entry17hc9ac70a2e6d2a1aaE>
  402fd4:	91000a88 	add	x8, x20, #0x2
  402fd8:	910023e0 	add	x0, sp, #0x8
  402fdc:	910063e1 	add	x1, sp, #0x18
  402fe0:	aa1503e2 	mov	x2, x21
  402fe4:	f9000fe8 	str	x8, [sp, #24]
  402fe8:	94009992 	bl	429630 <_ZN4core3fmt8builders8DebugSet5entry17hc9ac70a2e6d2a1aaE>
  402fec:	91000e88 	add	x8, x20, #0x3
  402ff0:	910023e0 	add	x0, sp, #0x8
  402ff4:	910063e1 	add	x1, sp, #0x18
  402ff8:	aa1503e2 	mov	x2, x21
  402ffc:	f9000fe8 	str	x8, [sp, #24]
  403000:	9400998c 	bl	429630 <_ZN4core3fmt8builders8DebugSet5entry17hc9ac70a2e6d2a1aaE>
  403004:	91001288 	add	x8, x20, #0x4
  403008:	910023e0 	add	x0, sp, #0x8
  40300c:	910063e1 	add	x1, sp, #0x18
  403010:	aa1503e2 	mov	x2, x21
  403014:	f9000fe8 	str	x8, [sp, #24]
  403018:	94009986 	bl	429630 <_ZN4core3fmt8builders8DebugSet5entry17hc9ac70a2e6d2a1aaE>
  40301c:	91001688 	add	x8, x20, #0x5
  403020:	910023e0 	add	x0, sp, #0x8
  403024:	910063e1 	add	x1, sp, #0x18
  403028:	aa1503e2 	mov	x2, x21
  40302c:	f9000fe8 	str	x8, [sp, #24]
  403030:	94009980 	bl	429630 <_ZN4core3fmt8builders8DebugSet5entry17hc9ac70a2e6d2a1aaE>
  403034:	91001a88 	add	x8, x20, #0x6
  403038:	910023e0 	add	x0, sp, #0x8
  40303c:	910063e1 	add	x1, sp, #0x18
  403040:	aa1503e2 	mov	x2, x21
  403044:	f9000fe8 	str	x8, [sp, #24]
  403048:	9400997a 	bl	429630 <_ZN4core3fmt8builders8DebugSet5entry17hc9ac70a2e6d2a1aaE>
  40304c:	91001e88 	add	x8, x20, #0x7
  403050:	910023e0 	add	x0, sp, #0x8
  403054:	910063e1 	add	x1, sp, #0x18
  403058:	aa1503e2 	mov	x2, x21
  40305c:	f9000fe8 	str	x8, [sp, #24]
  403060:	94009974 	bl	429630 <_ZN4core3fmt8builders8DebugSet5entry17hc9ac70a2e6d2a1aaE>
  403064:	91002288 	add	x8, x20, #0x8
  403068:	910023e0 	add	x0, sp, #0x8
  40306c:	910063e1 	add	x1, sp, #0x18
  403070:	aa1503e2 	mov	x2, x21
  403074:	f9000fe8 	str	x8, [sp, #24]
  403078:	9400996e 	bl	429630 <_ZN4core3fmt8builders8DebugSet5entry17hc9ac70a2e6d2a1aaE>
  40307c:	91002688 	add	x8, x20, #0x9
  403080:	910023e0 	add	x0, sp, #0x8
  403084:	910063e1 	add	x1, sp, #0x18
  403088:	aa1503e2 	mov	x2, x21
  40308c:	f9000fe8 	str	x8, [sp, #24]
  403090:	94009968 	bl	429630 <_ZN4core3fmt8builders8DebugSet5entry17hc9ac70a2e6d2a1aaE>
  403094:	91002a88 	add	x8, x20, #0xa
  403098:	910023e0 	add	x0, sp, #0x8
  40309c:	910063e1 	add	x1, sp, #0x18
  4030a0:	aa1503e2 	mov	x2, x21
  4030a4:	f9000fe8 	str	x8, [sp, #24]
  4030a8:	94009962 	bl	429630 <_ZN4core3fmt8builders8DebugSet5entry17hc9ac70a2e6d2a1aaE>
  4030ac:	91002e88 	add	x8, x20, #0xb
  4030b0:	910023e0 	add	x0, sp, #0x8
  4030b4:	910063e1 	add	x1, sp, #0x18
  4030b8:	aa1503e2 	mov	x2, x21
  4030bc:	f9000fe8 	str	x8, [sp, #24]
  4030c0:	9400995c 	bl	429630 <_ZN4core3fmt8builders8DebugSet5entry17hc9ac70a2e6d2a1aaE>
  4030c4:	91003288 	add	x8, x20, #0xc
  4030c8:	910023e0 	add	x0, sp, #0x8
  4030cc:	910063e1 	add	x1, sp, #0x18
  4030d0:	aa1503e2 	mov	x2, x21
  4030d4:	f9000fe8 	str	x8, [sp, #24]
  4030d8:	94009956 	bl	429630 <_ZN4core3fmt8builders8DebugSet5entry17hc9ac70a2e6d2a1aaE>
  4030dc:	91003688 	add	x8, x20, #0xd
  4030e0:	910023e0 	add	x0, sp, #0x8
  4030e4:	910063e1 	add	x1, sp, #0x18
  4030e8:	aa1503e2 	mov	x2, x21
  4030ec:	f9000fe8 	str	x8, [sp, #24]
  4030f0:	94009950 	bl	429630 <_ZN4core3fmt8builders8DebugSet5entry17hc9ac70a2e6d2a1aaE>
  4030f4:	91003a88 	add	x8, x20, #0xe
  4030f8:	910023e0 	add	x0, sp, #0x8
  4030fc:	910063e1 	add	x1, sp, #0x18
  403100:	aa1503e2 	mov	x2, x21
  403104:	f9000fe8 	str	x8, [sp, #24]
  403108:	9400994a 	bl	429630 <_ZN4core3fmt8builders8DebugSet5entry17hc9ac70a2e6d2a1aaE>
  40310c:	91003e88 	add	x8, x20, #0xf
  403110:	910023e0 	add	x0, sp, #0x8
  403114:	910063e1 	add	x1, sp, #0x18
  403118:	aa1503e2 	mov	x2, x21
  40311c:	f9000fe8 	str	x8, [sp, #24]
  403120:	94009944 	bl	429630 <_ZN4core3fmt8builders8DebugSet5entry17hc9ac70a2e6d2a1aaE>
  403124:	91004288 	add	x8, x20, #0x10
  403128:	910023e0 	add	x0, sp, #0x8
  40312c:	910063e1 	add	x1, sp, #0x18
  403130:	aa1503e2 	mov	x2, x21
  403134:	f9000fe8 	str	x8, [sp, #24]
  403138:	9400993e 	bl	429630 <_ZN4core3fmt8builders8DebugSet5entry17hc9ac70a2e6d2a1aaE>
  40313c:	91004688 	add	x8, x20, #0x11
  403140:	910023e0 	add	x0, sp, #0x8
  403144:	910063e1 	add	x1, sp, #0x18
  403148:	aa1503e2 	mov	x2, x21
  40314c:	f9000fe8 	str	x8, [sp, #24]
  403150:	94009938 	bl	429630 <_ZN4core3fmt8builders8DebugSet5entry17hc9ac70a2e6d2a1aaE>
  403154:	91004a88 	add	x8, x20, #0x12
  403158:	910023e0 	add	x0, sp, #0x8
  40315c:	910063e1 	add	x1, sp, #0x18
  403160:	aa1503e2 	mov	x2, x21
  403164:	f9000fe8 	str	x8, [sp, #24]
  403168:	94009932 	bl	429630 <_ZN4core3fmt8builders8DebugSet5entry17hc9ac70a2e6d2a1aaE>
  40316c:	91004e88 	add	x8, x20, #0x13
  403170:	910023e0 	add	x0, sp, #0x8
  403174:	910063e1 	add	x1, sp, #0x18
  403178:	aa1503e2 	mov	x2, x21
  40317c:	f9000fe8 	str	x8, [sp, #24]
  403180:	9400992c 	bl	429630 <_ZN4core3fmt8builders8DebugSet5entry17hc9ac70a2e6d2a1aaE>
  403184:	394043e8 	ldrb	w8, [sp, #16]
  403188:	340000c8 	cbz	w8, 4031a0 <_ZN4core5array69_$LT$impl$u20$core..fmt..Debug$u20$for$u20$$u5b$T$u3b$$u20$N$u5d$$GT$3fmt17h9eb4ecf3e91004d8E+0x23c>
  40318c:	2a1303e0 	mov	w0, w19
  403190:	a9434ff4 	ldp	x20, x19, [sp, #48]
  403194:	a94257fe 	ldp	x30, x21, [sp, #32]
  403198:	910103ff 	add	sp, sp, #0x40
  40319c:	d65f03c0 	ret
  4031a0:	f94007e8 	ldr	x8, [sp, #8]
  4031a4:	d503201f 	nop
  4031a8:	1017f401 	adr	x1, 433028 <etext+0x5028>
  4031ac:	52800022 	mov	w2, #0x1                   	// #1
  4031b0:	a9422500 	ldp	x0, x9, [x8, #32]
  4031b4:	f9400d28 	ldr	x8, [x9, #24]
  4031b8:	d63f0100 	blr	x8
  4031bc:	a9434ff4 	ldp	x20, x19, [sp, #48]
  4031c0:	a94257fe 	ldp	x30, x21, [sp, #32]
  4031c4:	910103ff 	add	sp, sp, #0x40
  4031c8:	d65f03c0 	ret

00000000004031cc <_ZN4spin4once17Once$LT$T$C$R$GT$18try_call_once_slow17hd27f34a5bc06dd2cE>:
  4031cc:	d00004e8 	adrp	x8, 4a1000 <_ZN7axalloc16GLOBAL_ALLOCATOR17h04b3423754977f4bE+0x23000>
  4031d0:	913ce108 	add	x8, x8, #0xf38
  4031d4:	085ffd0a 	ldaxrb	w10, [x8]
  4031d8:	350000ca 	cbnz	w10, 4031f0 <_ZN4spin4once17Once$LT$T$C$R$GT$18try_call_once_slow17hd27f34a5bc06dd2cE+0x24>
  4031dc:	52800029 	mov	w9, #0x1                   	// #1
  4031e0:	080b7d09 	stxrb	w11, w9, [x8]
  4031e4:	35ffff8b 	cbnz	w11, 4031d4 <_ZN4spin4once17Once$LT$T$C$R$GT$18try_call_once_slow17hd27f34a5bc06dd2cE+0x8>
  4031e8:	370000a9 	tbnz	w9, #0, 4031fc <_ZN4spin4once17Once$LT$T$C$R$GT$18try_call_once_slow17hd27f34a5bc06dd2cE+0x30>
  4031ec:	1400000b 	b	403218 <_ZN4spin4once17Once$LT$T$C$R$GT$18try_call_once_slow17hd27f34a5bc06dd2cE+0x4c>
  4031f0:	2a1f03e9 	mov	w9, wzr
  4031f4:	d5033f5f 	clrex
  4031f8:	3600011f 	tbz	wzr, #0, 403218 <_ZN4spin4once17Once$LT$T$C$R$GT$18try_call_once_slow17hd27f34a5bc06dd2cE+0x4c>
  4031fc:	f9400008 	ldr	x8, [x0]
  403200:	52800049 	mov	w9, #0x2                   	// #2
  403204:	d00004ea 	adrp	x10, 4a1000 <_ZN7axalloc16GLOBAL_ALLOCATOR17h04b3423754977f4bE+0x23000>
  403208:	913cc14a 	add	x10, x10, #0xf30
  40320c:	f8008548 	str	x8, [x10], #8
  403210:	089ffd49 	stlrb	w9, [x10]
  403214:	d65f03c0 	ret
  403218:	d503201f 	nop
  40321c:	10156f29 	adr	x9, 42e000 <etext>
  403220:	14000004 	b	403230 <_ZN4spin4once17Once$LT$T$C$R$GT$18try_call_once_slow17hd27f34a5bc06dd2cE+0x64>
  403224:	2a1f03eb 	mov	w11, wzr
  403228:	d5033f5f 	clrex
  40322c:	3707fe8b 	tbnz	w11, #0, 4031fc <_ZN4spin4once17Once$LT$T$C$R$GT$18try_call_once_slow17hd27f34a5bc06dd2cE+0x30>
  403230:	2a0a03ea 	mov	w10, w10
  403234:	1000008b 	adr	x11, 403244 <_ZN4spin4once17Once$LT$T$C$R$GT$18try_call_once_slow17hd27f34a5bc06dd2cE+0x78>
  403238:	386a692c 	ldrb	w12, [x9, x10]
  40323c:	8b0c096b 	add	x11, x11, x12, lsl #2
  403240:	d61f0160 	br	x11
  403244:	08dffd0a 	ldarb	w10, [x8]
  403248:	7100055f 	cmp	w10, #0x1
  40324c:	540000a1 	b.ne	403260 <_ZN4spin4once17Once$LT$T$C$R$GT$18try_call_once_slow17hd27f34a5bc06dd2cE+0x94>  // b.any
  403250:	d5033fdf 	isb
  403254:	08dffd0a 	ldarb	w10, [x8]
  403258:	7100055f 	cmp	w10, #0x1
  40325c:	54ffffa0 	b.eq	403250 <_ZN4spin4once17Once$LT$T$C$R$GT$18try_call_once_slow17hd27f34a5bc06dd2cE+0x84>  // b.none
  403260:	350000ea 	cbnz	w10, 40327c <_ZN4spin4once17Once$LT$T$C$R$GT$18try_call_once_slow17hd27f34a5bc06dd2cE+0xb0>
  403264:	085ffd0a 	ldaxrb	w10, [x8]
  403268:	35fffdea 	cbnz	w10, 403224 <_ZN4spin4once17Once$LT$T$C$R$GT$18try_call_once_slow17hd27f34a5bc06dd2cE+0x58>
  40326c:	5280002b 	mov	w11, #0x1                   	// #1
  403270:	080c7d0b 	stxrb	w12, w11, [x8]
  403274:	35ffff8c 	cbnz	w12, 403264 <_ZN4spin4once17Once$LT$T$C$R$GT$18try_call_once_slow17hd27f34a5bc06dd2cE+0x98>
  403278:	17ffffed 	b	40322c <_ZN4spin4once17Once$LT$T$C$R$GT$18try_call_once_slow17hd27f34a5bc06dd2cE+0x60>
  40327c:	7100095f 	cmp	w10, #0x2
  403280:	54000041 	b.ne	403288 <_ZN4spin4once17Once$LT$T$C$R$GT$18try_call_once_slow17hd27f34a5bc06dd2cE+0xbc>  // b.any
  403284:	d65f03c0 	ret
  403288:	d503201f 	nop
  40328c:	10158660 	adr	x0, 42e358 <etext+0x358>
  403290:	d503201f 	nop
  403294:	10158762 	adr	x2, 42e380 <etext+0x380>
  403298:	528004c1 	mov	w1, #0x26                  	// #38
  40329c:	940094c7 	bl	4285b8 <_ZN4core9panicking5panic17h7622c9da94764cc6E>
  4032a0:	d4200020 	brk	#0x1
  4032a4:	d503201f 	nop
  4032a8:	10158180 	adr	x0, 42e2d8 <etext+0x2d8>
  4032ac:	d503201f 	nop
  4032b0:	10158482 	adr	x2, 42e340 <etext+0x340>
  4032b4:	528001a1 	mov	w1, #0xd                   	// #13
  4032b8:	940094c0 	bl	4285b8 <_ZN4core9panicking5panic17h7622c9da94764cc6E>
  4032bc:	d4200020 	brk	#0x1

00000000004032c0 <_ZN5alloc11collections9vec_deque21VecDeque$LT$T$C$A$GT$4grow17h08d7cefe07e6dd26E>:
  4032c0:	f81e0ffe 	str	x30, [sp, #-32]!
  4032c4:	a9014ff4 	stp	x20, x19, [sp, #16]
  4032c8:	f9400414 	ldr	x20, [x0, #8]
  4032cc:	aa0003f3 	mov	x19, x0
  4032d0:	aa1403e1 	mov	x1, x20
  4032d4:	940010b0 	bl	407594 <_ZN5alloc7raw_vec19RawVec$LT$T$C$A$GT$16reserve_for_push17h4c7b7e5bb82bf434E>
  4032d8:	a9412e68 	ldp	x8, x11, [x19, #16]
  4032dc:	cb0b0289 	sub	x9, x20, x11
  4032e0:	eb09011f 	cmp	x8, x9
  4032e4:	540002c9 	b.ls	40333c <_ZN5alloc11collections9vec_deque21VecDeque$LT$T$C$A$GT$4grow17h08d7cefe07e6dd26E+0x7c>  // b.plast
  4032e8:	cb080289 	sub	x9, x20, x8
  4032ec:	f940066a 	ldr	x10, [x19, #8]
  4032f0:	cb09016b 	sub	x11, x11, x9
  4032f4:	eb0b013f 	cmp	x9, x11
  4032f8:	54000149 	b.ls	403320 <_ZN5alloc11collections9vec_deque21VecDeque$LT$T$C$A$GT$4grow17h08d7cefe07e6dd26E+0x60>  // b.plast
  4032fc:	cb14014c 	sub	x12, x10, x20
  403300:	eb0b019f 	cmp	x12, x11
  403304:	540000e3 	b.cc	403320 <_ZN5alloc11collections9vec_deque21VecDeque$LT$T$C$A$GT$4grow17h08d7cefe07e6dd26E+0x60>  // b.lo, b.ul, b.last
  403308:	f9400261 	ldr	x1, [x19]
  40330c:	d37df162 	lsl	x2, x11, #3
  403310:	8b140c20 	add	x0, x1, x20, lsl #3
  403314:	a9414ff4 	ldp	x20, x19, [sp, #16]
  403318:	f84207fe 	ldr	x30, [sp], #32
  40331c:	1400a98c 	b	42d94c <memcpy>
  403320:	f940026b 	ldr	x11, [x19]
  403324:	cb090154 	sub	x20, x10, x9
  403328:	d37df122 	lsl	x2, x9, #3
  40332c:	8b080d61 	add	x1, x11, x8, lsl #3
  403330:	8b140d60 	add	x0, x11, x20, lsl #3
  403334:	9400a984 	bl	42d944 <memmove>
  403338:	f9000a74 	str	x20, [x19, #16]
  40333c:	a9414ff4 	ldp	x20, x19, [sp, #16]
  403340:	f84207fe 	ldr	x30, [sp], #32
  403344:	d65f03c0 	ret

0000000000403348 <_ZN77_$LT$arrayvec..errors..CapacityError$LT$T$GT$$u20$as$u20$core..fmt..Debug$GT$3fmt17h86fd338ec59248e4E>:
  403348:	d10143ff 	sub	sp, sp, #0x50
  40334c:	d503201f 	nop
  403350:	10158409 	adr	x9, 42e3d0 <etext+0x3d0>
  403354:	d503201f 	nop
  403358:	100fd84a 	adr	x10, 422e60 <_ZN44_$LT$$RF$T$u20$as$u20$core..fmt..Display$GT$3fmt17h028168b546b8445cE>
  40335c:	a9420420 	ldp	x0, x1, [x1, #32]
  403360:	52800028 	mov	w8, #0x1                   	// #1
  403364:	f9001be9 	str	x9, [sp, #48]
  403368:	a903fbea 	stp	x10, x30, [sp, #56]
  40336c:	d503201f 	nop
  403370:	101581c9 	adr	x9, 42e3a8 <etext+0x3a8>
  403374:	9100c3ea 	add	x10, sp, #0x30
  403378:	910003e2 	mov	x2, sp
  40337c:	a901ffe8 	stp	x8, xzr, [sp, #24]
  403380:	a90023e9 	stp	x9, x8, [sp]
  403384:	f9000bea 	str	x10, [sp, #16]
  403388:	940094d8 	bl	4286e8 <_ZN4core3fmt5write17had491e6ceb88f3c5E>
  40338c:	f94023fe 	ldr	x30, [sp, #64]
  403390:	910143ff 	add	sp, sp, #0x50
  403394:	d65f03c0 	ret

0000000000403398 <_ZN5alloc7raw_vec17capacity_overflow17h0a75521a8af5d283E>:
  403398:	d100c3ff 	sub	sp, sp, #0x30
  40339c:	d503201f 	nop
  4033a0:	10158688 	adr	x8, 42e470 <etext+0x470>
  4033a4:	52800029 	mov	w9, #0x1                   	// #1
  4033a8:	d503201f 	nop
  4033ac:	1018946a 	adr	x10, 434638 <_ZN4core7unicode12unicode_data15grapheme_extend7OFFSETS17h7af8ccc2b809066cE+0x9fc>
  4033b0:	d503201f 	nop
  4033b4:	10158661 	adr	x1, 42e480 <etext+0x480>
  4033b8:	910003e0 	mov	x0, sp
  4033bc:	a901ffff 	stp	xzr, xzr, [sp, #24]
  4033c0:	a90027e8 	stp	x8, x9, [sp]
  4033c4:	f9000bea 	str	x10, [sp, #16]
  4033c8:	940091b1 	bl	427a8c <_ZN4core9panicking9panic_fmt17hb834418528aaaa5dE>
  4033cc:	d4200020 	brk	#0x1

00000000004033d0 <__rdl_oom>:
  4033d0:	d10143ff 	sub	sp, sp, #0x50
  4033d4:	910023e8 	add	x8, sp, #0x8
  4033d8:	d503201f 	nop
  4033dc:	10123ce9 	adr	x9, 427b78 <_ZN4core3fmt3num3imp52_$LT$impl$u20$core..fmt..Display$u20$for$u20$u64$GT$3fmt17hb9355a591539ed06E>
  4033e0:	910103ea 	add	x10, sp, #0x40
  4033e4:	a90427e8 	stp	x8, x9, [sp, #64]
  4033e8:	52800048 	mov	w8, #0x2                   	// #2
  4033ec:	d503201f 	nop
  4033f0:	10158749 	adr	x9, 42e4d8 <etext+0x4d8>
  4033f4:	a901abe8 	stp	x8, x10, [sp, #24]
  4033f8:	52800028 	mov	w8, #0x1                   	// #1
  4033fc:	a900a7e0 	stp	x0, x9, [sp, #8]
  403400:	910043e0 	add	x0, sp, #0x10
  403404:	a902ffe8 	stp	x8, xzr, [sp, #40]
  403408:	94009854 	bl	429558 <_ZN4core9panicking18panic_nounwind_fmt17h5e9973ea1aec1188E>
  40340c:	d4200020 	brk	#0x1

0000000000403410 <_ZN79_$LT$allocator..tlsf..TlsfByteAllocator$u20$as$u20$allocator..BaseAllocator$GT$10add_memory17h40f02a8f72260e74E>:
  403410:	b4000821 	cbz	x1, 403514 <_ZN79_$LT$allocator..tlsf..TlsfByteAllocator$u20$as$u20$allocator..BaseAllocator$GT$10add_memory17h40f02a8f72260e74E+0x104>
  403414:	91007c28 	add	x8, x1, #0x1f
  403418:	927be909 	and	x9, x8, #0xffffffffffffffe0
  40341c:	cb010128 	sub	x8, x9, x1
  403420:	eb08004a 	subs	x10, x2, x8
  403424:	f100fd5f 	cmp	x10, #0x3f
  403428:	1a9f97ea 	cset	w10, hi  // hi = pmore
  40342c:	eb080048 	subs	x8, x2, x8
  403430:	9a8a33ea 	csel	x10, xzr, x10, cc  // cc = lo, ul, last
  403434:	f100055f 	cmp	x10, #0x1
  403438:	54000541 	b.ne	4034e0 <_ZN79_$LT$allocator..tlsf..TlsfByteAllocator$u20$as$u20$allocator..BaseAllocator$GT$10add_memory17h40f02a8f72260e74E+0xd0>  // b.any
  40343c:	927be908 	and	x8, x8, #0xffffffffffffffe0
  403440:	f101011f 	cmp	x8, #0x40
  403444:	540004e3 	b.cc	4034e0 <_ZN79_$LT$allocator..tlsf..TlsfByteAllocator$u20$as$u20$allocator..BaseAllocator$GT$10add_memory17h40f02a8f72260e74E+0xd0>  // b.lo, b.ul, b.last
  403448:	d2c0004a 	mov	x10, #0x200000000           	// #8589934592
  40344c:	5280046c 	mov	w12, #0x23                  	// #35
  403450:	5280074d 	mov	w13, #0x3a                  	// #58
  403454:	5280002e 	mov	w14, #0x1                   	// #1
  403458:	aa0903eb 	mov	x11, x9
  40345c:	1400000e 	b	403494 <_ZN79_$LT$allocator..tlsf..TlsfByteAllocator$u20$as$u20$allocator..BaseAllocator$GT$10add_memory17h40f02a8f72260e74E+0x84>
  403460:	b95c7012 	ldr	w18, [x0, #7280]
  403464:	1ad121c3 	lsl	w3, w14, w17
  403468:	8b110811 	add	x17, x0, x17, lsl #2
  40346c:	1ad021d0 	lsl	w16, w14, w16
  403470:	cb0f0108 	sub	x8, x8, x15
  403474:	8b0b01eb 	add	x11, x15, x11
  403478:	2a030252 	orr	w18, w18, w3
  40347c:	f100fd1f 	cmp	x8, #0x3f
  403480:	b91c7012 	str	w18, [x0, #7280]
  403484:	b95c0232 	ldr	w18, [x17, #7168]
  403488:	2a100250 	orr	w16, w18, w16
  40348c:	b91c0230 	str	w16, [x17, #7168]
  403490:	540002c9 	b.ls	4034e8 <_ZN79_$LT$allocator..tlsf..TlsfByteAllocator$u20$as$u20$allocator..BaseAllocator$GT$10add_memory17h40f02a8f72260e74E+0xd8>  // b.plast
  403494:	eb0a011f 	cmp	x8, x10
  403498:	9a8a310f 	csel	x15, x8, x10, cc  // cc = lo, ul, last
  40349c:	d10081f2 	sub	x18, x15, #0x20
  4034a0:	dac01250 	clz	x16, x18
  4034a4:	927bea43 	and	x3, x18, #0xffffffffffffffe0
  4034a8:	cb1001b1 	sub	x17, x13, x16
  4034ac:	8b030163 	add	x3, x11, x3
  4034b0:	a9007d72 	stp	x18, xzr, [x11]
  4034b4:	8b112005 	add	x5, x0, x17, lsl #8
  4034b8:	9ad12e50 	ror	x16, x18, x17
  4034bc:	a9002c6c 	stp	x12, x11, [x3]
  4034c0:	92401210 	and	x16, x16, #0x1f
  4034c4:	d37df204 	lsl	x4, x16, #3
  4034c8:	f86468b2 	ldr	x18, [x5, x4]
  4034cc:	f82468ab 	str	x11, [x5, x4]
  4034d0:	a9017d72 	stp	x18, xzr, [x11, #16]
  4034d4:	b4fffc72 	cbz	x18, 403460 <_ZN79_$LT$allocator..tlsf..TlsfByteAllocator$u20$as$u20$allocator..BaseAllocator$GT$10add_memory17h40f02a8f72260e74E+0x50>
  4034d8:	f9000e4b 	str	x11, [x18, #24]
  4034dc:	17ffffe1 	b	403460 <_ZN79_$LT$allocator..tlsf..TlsfByteAllocator$u20$as$u20$allocator..BaseAllocator$GT$10add_memory17h40f02a8f72260e74E+0x50>
  4034e0:	2a1f03e0 	mov	w0, wzr
  4034e4:	d65f03c0 	ret
  4034e8:	2a1f03e8 	mov	w8, wzr
  4034ec:	eb09017f 	cmp	x11, x9
  4034f0:	540000e0 	b.eq	40350c <_ZN79_$LT$allocator..tlsf..TlsfByteAllocator$u20$as$u20$allocator..BaseAllocator$GT$10add_memory17h40f02a8f72260e74E+0xfc>  // b.none
  4034f4:	eb01017f 	cmp	x11, x1
  4034f8:	540000a0 	b.eq	40350c <_ZN79_$LT$allocator..tlsf..TlsfByteAllocator$u20$as$u20$allocator..BaseAllocator$GT$10add_memory17h40f02a8f72260e74E+0xfc>  // b.none
  4034fc:	f94e3c08 	ldr	x8, [x0, #7288]
  403500:	8b020109 	add	x9, x8, x2
  403504:	52800088 	mov	w8, #0x4                   	// #4
  403508:	f90e3c09 	str	x9, [x0, #7288]
  40350c:	2a0803e0 	mov	w0, w8
  403510:	d65f03c0 	ret
  403514:	d503201f 	nop
  403518:	10188c00 	adr	x0, 434698 <_ZN3log6logger3NOP17h11948bda88406911E+0x30>
  40351c:	d503201f 	nop
  403520:	10158202 	adr	x2, 42e560 <etext+0x560>
  403524:	52800561 	mov	w1, #0x2b                  	// #43
  403528:	94009424 	bl	4285b8 <_ZN4core9panicking5panic17h7622c9da94764cc6E>
  40352c:	d4200020 	brk	#0x1

0000000000403530 <_ZN79_$LT$allocator..tlsf..TlsfByteAllocator$u20$as$u20$allocator..ByteAllocator$GT$7dealloc17ha19d402839ba8d1fE>:
  403530:	f1007c3f 	cmp	x1, #0x1f
  403534:	54000069 	b.ls	403540 <_ZN79_$LT$allocator..tlsf..TlsfByteAllocator$u20$as$u20$allocator..ByteAllocator$GT$7dealloc17ha19d402839ba8d1fE+0x10>  // b.plast
  403538:	f85f800c 	ldur	x12, [x0, #-8]
  40353c:	14000002 	b	403544 <_ZN79_$LT$allocator..tlsf..TlsfByteAllocator$u20$as$u20$allocator..ByteAllocator$GT$7dealloc17ha19d402839ba8d1fE+0x14>
  403540:	d100400c 	sub	x12, x0, #0x10
  403544:	f9400188 	ldr	x8, [x12]
  403548:	d503201f 	nop
  40354c:	103d55aa 	adr	x10, 47e000 <_ZN7axalloc16GLOBAL_ALLOCATOR17h04b3423754977f4bE>
  403550:	927be909 	and	x9, x8, #0xffffffffffffffe0
  403554:	8b09018b 	add	x11, x12, x9
  403558:	927ff909 	and	x9, x8, #0xfffffffffffffffe
  40355c:	f940016e 	ldr	x14, [x11]
  403560:	3700014e 	tbnz	w14, #0, 403588 <_ZN79_$LT$allocator..tlsf..TlsfByteAllocator$u20$as$u20$allocator..ByteAllocator$GT$7dealloc17ha19d402839ba8d1fE+0x58>
  403564:	927be9c8 	and	x8, x14, #0xffffffffffffffe0
  403568:	8b0e0129 	add	x9, x9, x14
  40356c:	8b080168 	add	x8, x11, x8
  403570:	a9412d6d 	ldp	x13, x11, [x11, #16]
  403574:	b400004d 	cbz	x13, 40357c <_ZN79_$LT$allocator..tlsf..TlsfByteAllocator$u20$as$u20$allocator..ByteAllocator$GT$7dealloc17ha19d402839ba8d1fE+0x4c>
  403578:	f9000dab 	str	x11, [x13, #24]
  40357c:	b400062b 	cbz	x11, 403640 <_ZN79_$LT$allocator..tlsf..TlsfByteAllocator$u20$as$u20$allocator..ByteAllocator$GT$7dealloc17ha19d402839ba8d1fE+0x110>
  403580:	f900096d 	str	x13, [x11, #16]
  403584:	14000002 	b	40358c <_ZN79_$LT$allocator..tlsf..TlsfByteAllocator$u20$as$u20$allocator..ByteAllocator$GT$7dealloc17ha19d402839ba8d1fE+0x5c>
  403588:	aa0b03e8 	mov	x8, x11
  40358c:	f940058b 	ldr	x11, [x12, #8]
  403590:	b400014b 	cbz	x11, 4035b8 <_ZN79_$LT$allocator..tlsf..TlsfByteAllocator$u20$as$u20$allocator..ByteAllocator$GT$7dealloc17ha19d402839ba8d1fE+0x88>
  403594:	f940016e 	ldr	x14, [x11]
  403598:	3700010e 	tbnz	w14, #0, 4035b8 <_ZN79_$LT$allocator..tlsf..TlsfByteAllocator$u20$as$u20$allocator..ByteAllocator$GT$7dealloc17ha19d402839ba8d1fE+0x88>
  40359c:	a941316d 	ldp	x13, x12, [x11, #16]
  4035a0:	8b0901c9 	add	x9, x14, x9
  4035a4:	b400004d 	cbz	x13, 4035ac <_ZN79_$LT$allocator..tlsf..TlsfByteAllocator$u20$as$u20$allocator..ByteAllocator$GT$7dealloc17ha19d402839ba8d1fE+0x7c>
  4035a8:	f9000dac 	str	x12, [x13, #24]
  4035ac:	b400080c 	cbz	x12, 4036ac <_ZN79_$LT$allocator..tlsf..TlsfByteAllocator$u20$as$u20$allocator..ByteAllocator$GT$7dealloc17ha19d402839ba8d1fE+0x17c>
  4035b0:	f900098d 	str	x13, [x12, #16]
  4035b4:	14000002 	b	4035bc <_ZN79_$LT$allocator..tlsf..TlsfByteAllocator$u20$as$u20$allocator..ByteAllocator$GT$7dealloc17ha19d402839ba8d1fE+0x8c>
  4035b8:	aa0c03eb 	mov	x11, x12
  4035bc:	dac0112c 	clz	x12, x9
  4035c0:	5280074d 	mov	w13, #0x3a                  	// #58
  4035c4:	cb0c01ae 	sub	x14, x13, x12
  4035c8:	5284480f 	mov	w15, #0x2240                	// #8768
  4035cc:	92407dcd 	and	x13, x14, #0xffffffff
  4035d0:	72a0004f 	movk	w15, #0x2, lsl #16
  4035d4:	f9000169 	str	x9, [x11]
  4035d8:	9ace2d2c 	ror	x12, x9, x14
  4035dc:	8b0d214a 	add	x10, x10, x13, lsl #8
  4035e0:	9240118c 	and	x12, x12, #0x1f
  4035e4:	8b0c0d50 	add	x16, x10, x12, lsl #3
  4035e8:	f86f6a0a 	ldr	x10, [x16, x15]
  4035ec:	f82f6a0b 	str	x11, [x16, x15]
  4035f0:	a9017d6a 	stp	x10, xzr, [x11, #16]
  4035f4:	b400004a 	cbz	x10, 4035fc <_ZN79_$LT$allocator..tlsf..TlsfByteAllocator$u20$as$u20$allocator..ByteAllocator$GT$7dealloc17ha19d402839ba8d1fE+0xcc>
  4035f8:	f9000d4b 	str	x11, [x10, #24]
  4035fc:	b00004e9 	adrp	x9, 4a0000 <_ZN7axalloc16GLOBAL_ALLOCATOR17h04b3423754977f4bE+0x22000>
  403600:	91090129 	add	x9, x9, #0x240
  403604:	5280002f 	mov	w15, #0x1                   	// #1
  403608:	8b0d092d 	add	x13, x9, x13, lsl #2
  40360c:	1ace21ee 	lsl	w14, w15, w14
  403610:	1acc21ec 	lsl	w12, w15, w12
  403614:	b95c712a 	ldr	w10, [x9, #7280]
  403618:	f900050b 	str	x11, [x8, #8]
  40361c:	2a0e014a 	orr	w10, w10, w14
  403620:	b91c712a 	str	w10, [x9, #7280]
  403624:	b95c01aa 	ldr	w10, [x13, #7168]
  403628:	2a0c014a 	orr	w10, w10, w12
  40362c:	b91c01aa 	str	w10, [x13, #7168]
  403630:	f94e4128 	ldr	x8, [x9, #7296]
  403634:	cb020108 	sub	x8, x8, x2
  403638:	f90e4128 	str	x8, [x9, #7296]
  40363c:	d65f03c0 	ret
  403640:	dac011cb 	clz	x11, x14
  403644:	5280074f 	mov	w15, #0x3a                  	// #58
  403648:	cb0b01eb 	sub	x11, x15, x11
  40364c:	52844811 	mov	w17, #0x2240                	// #8768
  403650:	92407d6f 	and	x15, x11, #0xffffffff
  403654:	72a00051 	movk	w17, #0x2, lsl #16
  403658:	9acb2dce 	ror	x14, x14, x11
  40365c:	8b0f2150 	add	x16, x10, x15, lsl #8
  403660:	924011ce 	and	x14, x14, #0x1f
  403664:	8b0e0e10 	add	x16, x16, x14, lsl #3
  403668:	f8316a0d 	str	x13, [x16, x17]
  40366c:	b5fff90d 	cbnz	x13, 40358c <_ZN79_$LT$allocator..tlsf..TlsfByteAllocator$u20$as$u20$allocator..ByteAllocator$GT$7dealloc17ha19d402839ba8d1fE+0x5c>
  403670:	5287c810 	mov	w16, #0x3e40                	// #15936
  403674:	8b0f094f 	add	x15, x10, x15, lsl #2
  403678:	72a00050 	movk	w16, #0x2, lsl #16
  40367c:	5280002d 	mov	w13, #0x1                   	// #1
  403680:	1ace21ae 	lsl	w14, w13, w14
  403684:	b87069f1 	ldr	w17, [x15, x16]
  403688:	6a2e022e 	bics	w14, w17, w14
  40368c:	b83069ee 	str	w14, [x15, x16]
  403690:	54fff7e1 	b.ne	40358c <_ZN79_$LT$allocator..tlsf..TlsfByteAllocator$u20$as$u20$allocator..ByteAllocator$GT$7dealloc17ha19d402839ba8d1fE+0x5c>  // b.any
  403694:	d00004ee 	adrp	x14, 4a1000 <_ZN7axalloc16GLOBAL_ALLOCATOR17h04b3423754977f4bE+0x23000>
  403698:	1acb21ab 	lsl	w11, w13, w11
  40369c:	b94eb1cf 	ldr	w15, [x14, #3760]
  4036a0:	0a2b01eb 	bic	w11, w15, w11
  4036a4:	b90eb1cb 	str	w11, [x14, #3760]
  4036a8:	17ffffb9 	b	40358c <_ZN79_$LT$allocator..tlsf..TlsfByteAllocator$u20$as$u20$allocator..ByteAllocator$GT$7dealloc17ha19d402839ba8d1fE+0x5c>
  4036ac:	dac011cc 	clz	x12, x14
  4036b0:	5280074f 	mov	w15, #0x3a                  	// #58
  4036b4:	cb0c01ec 	sub	x12, x15, x12
  4036b8:	52844811 	mov	w17, #0x2240                	// #8768
  4036bc:	92407d8f 	and	x15, x12, #0xffffffff
  4036c0:	72a00051 	movk	w17, #0x2, lsl #16
  4036c4:	9acc2dce 	ror	x14, x14, x12
  4036c8:	8b0f2150 	add	x16, x10, x15, lsl #8
  4036cc:	924011ce 	and	x14, x14, #0x1f
  4036d0:	8b0e0e10 	add	x16, x16, x14, lsl #3
  4036d4:	f8316a0d 	str	x13, [x16, x17]
  4036d8:	b5fff72d 	cbnz	x13, 4035bc <_ZN79_$LT$allocator..tlsf..TlsfByteAllocator$u20$as$u20$allocator..ByteAllocator$GT$7dealloc17ha19d402839ba8d1fE+0x8c>
  4036dc:	5287c810 	mov	w16, #0x3e40                	// #15936
  4036e0:	8b0f094f 	add	x15, x10, x15, lsl #2
  4036e4:	72a00050 	movk	w16, #0x2, lsl #16
  4036e8:	5280002d 	mov	w13, #0x1                   	// #1
  4036ec:	1ace21ae 	lsl	w14, w13, w14
  4036f0:	b87069f1 	ldr	w17, [x15, x16]
  4036f4:	6a2e022e 	bics	w14, w17, w14
  4036f8:	b83069ee 	str	w14, [x15, x16]
  4036fc:	54fff601 	b.ne	4035bc <_ZN79_$LT$allocator..tlsf..TlsfByteAllocator$u20$as$u20$allocator..ByteAllocator$GT$7dealloc17ha19d402839ba8d1fE+0x8c>  // b.any
  403700:	d00004ee 	adrp	x14, 4a1000 <_ZN7axalloc16GLOBAL_ALLOCATOR17h04b3423754977f4bE+0x23000>
  403704:	1acc21ac 	lsl	w12, w13, w12
  403708:	b94eb1cf 	ldr	w15, [x14, #3760]
  40370c:	0a2c01ec 	bic	w12, w15, w12
  403710:	b90eb1cc 	str	w12, [x14, #3760]
  403714:	17ffffaa 	b	4035bc <_ZN79_$LT$allocator..tlsf..TlsfByteAllocator$u20$as$u20$allocator..ByteAllocator$GT$7dealloc17ha19d402839ba8d1fE+0x8c>

0000000000403718 <_ZN4core5slice4sort8heapsort17h31adcd998f998861E>:
  403718:	d100c3ff 	sub	sp, sp, #0x30
  40371c:	d341fc2a 	lsr	x10, x1, #1
  403720:	14000002 	b	403728 <_ZN4core5slice4sort8heapsort17h31adcd998f998861E+0x10>
  403724:	b400054a 	cbz	x10, 4037cc <_ZN4core5slice4sort8heapsort17h31adcd998f998861E+0xb4>
  403728:	d100054a 	sub	x10, x10, #0x1
  40372c:	5280002b 	mov	w11, #0x1                   	// #1
  403730:	b37ff94b 	bfi	x11, x10, #1, #63
  403734:	eb01017f 	cmp	x11, x1
  403738:	54ffff62 	b.cs	403724 <_ZN4core5slice4sort8heapsort17h31adcd998f998861E+0xc>  // b.hs, b.nlast
  40373c:	d37ff94d 	lsl	x13, x10, #1
  403740:	aa0a03e9 	mov	x9, x10
  403744:	910009a8 	add	x8, x13, #0x2
  403748:	eb01011f 	cmp	x8, x1
  40374c:	54000142 	b.cs	403774 <_ZN4core5slice4sort8heapsort17h31adcd998f998861E+0x5c>  // b.hs, b.nlast
  403750:	d37ced6c 	lsl	x12, x11, #4
  403754:	d37ced08 	lsl	x8, x8, #4
  403758:	f86c680c 	ldr	x12, [x0, x12]
  40375c:	f8686808 	ldr	x8, [x0, x8]
  403760:	eb08019f 	cmp	x12, x8
  403764:	9a8b2568 	cinc	x8, x11, cc  // cc = lo, ul, last
  403768:	eb01013f 	cmp	x9, x1
  40376c:	540000a3 	b.cc	403780 <_ZN4core5slice4sort8heapsort17h31adcd998f998861E+0x68>  // b.lo, b.ul, b.last
  403770:	14000055 	b	4038c4 <_ZN4core5slice4sort8heapsort17h31adcd998f998861E+0x1ac>
  403774:	aa0b03e8 	mov	x8, x11
  403778:	eb01013f 	cmp	x9, x1
  40377c:	54000a42 	b.cs	4038c4 <_ZN4core5slice4sort8heapsort17h31adcd998f998861E+0x1ac>  // b.hs, b.nlast
  403780:	eb01011f 	cmp	x8, x1
  403784:	54000aa2 	b.cs	4038d8 <_ZN4core5slice4sort8heapsort17h31adcd998f998861E+0x1c0>  // b.hs, b.nlast
  403788:	8b091009 	add	x9, x0, x9, lsl #4
  40378c:	8b08100c 	add	x12, x0, x8, lsl #4
  403790:	f940012b 	ldr	x11, [x9]
  403794:	f940018d 	ldr	x13, [x12]
  403798:	eb0d017f 	cmp	x11, x13
  40379c:	54fffc42 	b.cs	403724 <_ZN4core5slice4sort8heapsort17h31adcd998f998861E+0xc>  // b.hs, b.nlast
  4037a0:	a940398b 	ldp	x11, x14, [x12]
  4037a4:	d37ff90d 	lsl	x13, x8, #1
  4037a8:	a9403d30 	ldp	x16, x15, [x9]
  4037ac:	a900392b 	stp	x11, x14, [x9]
  4037b0:	5280002b 	mov	w11, #0x1                   	// #1
  4037b4:	b37ff90b 	bfi	x11, x8, #1, #63
  4037b8:	aa0803e9 	mov	x9, x8
  4037bc:	eb01017f 	cmp	x11, x1
  4037c0:	a9003d90 	stp	x16, x15, [x12]
  4037c4:	54fffc03 	b.cc	403744 <_ZN4core5slice4sort8heapsort17h31adcd998f998861E+0x2c>  // b.lo, b.ul, b.last
  4037c8:	17ffffd7 	b	403724 <_ZN4core5slice4sort8heapsort17h31adcd998f998861E+0xc>
  4037cc:	aa0103e8 	mov	x8, x1
  4037d0:	d1000508 	sub	x8, x8, #0x1
  4037d4:	eb01011f 	cmp	x8, x1
  4037d8:	540008a2 	b.cs	4038ec <_ZN4core5slice4sort8heapsort17h31adcd998f998861E+0x1d4>  // b.hs, b.nlast
  4037dc:	8b081009 	add	x9, x0, x8, lsl #4
  4037e0:	f100091f 	cmp	x8, #0x2
  4037e4:	a940340c 	ldp	x12, x13, [x0]
  4037e8:	a9402d2a 	ldp	x10, x11, [x9]
  4037ec:	a9002c0a 	stp	x10, x11, [x0]
  4037f0:	a900352c 	stp	x12, x13, [x9]
  4037f4:	540004c3 	b.cc	40388c <_ZN4core5slice4sort8heapsort17h31adcd998f998861E+0x174>  // b.lo, b.ul, b.last
  4037f8:	aa1f03ed 	mov	x13, xzr
  4037fc:	aa1f03ea 	mov	x10, xzr
  403800:	5280002c 	mov	w12, #0x1                   	// #1
  403804:	910009a9 	add	x9, x13, #0x2
  403808:	eb08013f 	cmp	x9, x8
  40380c:	54000142 	b.cs	403834 <_ZN4core5slice4sort8heapsort17h31adcd998f998861E+0x11c>  // b.hs, b.nlast
  403810:	d37ced8b 	lsl	x11, x12, #4
  403814:	d37ced29 	lsl	x9, x9, #4
  403818:	f86b680b 	ldr	x11, [x0, x11]
  40381c:	f8696809 	ldr	x9, [x0, x9]
  403820:	eb09017f 	cmp	x11, x9
  403824:	9a8c2589 	cinc	x9, x12, cc  // cc = lo, ul, last
  403828:	eb08015f 	cmp	x10, x8
  40382c:	540000a3 	b.cc	403840 <_ZN4core5slice4sort8heapsort17h31adcd998f998861E+0x128>  // b.lo, b.ul, b.last
  403830:	14000019 	b	403894 <_ZN4core5slice4sort8heapsort17h31adcd998f998861E+0x17c>
  403834:	aa0c03e9 	mov	x9, x12
  403838:	eb08015f 	cmp	x10, x8
  40383c:	540002c2 	b.cs	403894 <_ZN4core5slice4sort8heapsort17h31adcd998f998861E+0x17c>  // b.hs, b.nlast
  403840:	eb08013f 	cmp	x9, x8
  403844:	54000342 	b.cs	4038ac <_ZN4core5slice4sort8heapsort17h31adcd998f998861E+0x194>  // b.hs, b.nlast
  403848:	8b0a100a 	add	x10, x0, x10, lsl #4
  40384c:	8b09100b 	add	x11, x0, x9, lsl #4
  403850:	f940014c 	ldr	x12, [x10]
  403854:	f940016d 	ldr	x13, [x11]
  403858:	eb0d019f 	cmp	x12, x13
  40385c:	54fffba2 	b.cs	4037d0 <_ZN4core5slice4sort8heapsort17h31adcd998f998861E+0xb8>  // b.hs, b.nlast
  403860:	a940396c 	ldp	x12, x14, [x11]
  403864:	d37ff92d 	lsl	x13, x9, #1
  403868:	a9403d50 	ldp	x16, x15, [x10]
  40386c:	a900394c 	stp	x12, x14, [x10]
  403870:	5280002c 	mov	w12, #0x1                   	// #1
  403874:	b37ff92c 	bfi	x12, x9, #1, #63
  403878:	aa0903ea 	mov	x10, x9
  40387c:	eb08019f 	cmp	x12, x8
  403880:	a9003d70 	stp	x16, x15, [x11]
  403884:	54fffc03 	b.cc	403804 <_ZN4core5slice4sort8heapsort17h31adcd998f998861E+0xec>  // b.lo, b.ul, b.last
  403888:	17ffffd2 	b	4037d0 <_ZN4core5slice4sort8heapsort17h31adcd998f998861E+0xb8>
  40388c:	9100c3ff 	add	sp, sp, #0x30
  403890:	d65f03c0 	ret
  403894:	d503201f 	nop
  403898:	10156f82 	adr	x2, 42e688 <etext+0x688>
  40389c:	aa0a03e0 	mov	x0, x10
  4038a0:	aa0803e1 	mov	x1, x8
  4038a4:	940090a2 	bl	427b2c <_ZN4core9panicking18panic_bounds_check17h7a5004348664dd7fE>
  4038a8:	d4200020 	brk	#0x1
  4038ac:	d503201f 	nop
  4038b0:	10156f82 	adr	x2, 42e6a0 <etext+0x6a0>
  4038b4:	aa0903e0 	mov	x0, x9
  4038b8:	aa0803e1 	mov	x1, x8
  4038bc:	9400909c 	bl	427b2c <_ZN4core9panicking18panic_bounds_check17h7a5004348664dd7fE>
  4038c0:	d4200020 	brk	#0x1
  4038c4:	d503201f 	nop
  4038c8:	10156e02 	adr	x2, 42e688 <etext+0x688>
  4038cc:	aa0903e0 	mov	x0, x9
  4038d0:	94009097 	bl	427b2c <_ZN4core9panicking18panic_bounds_check17h7a5004348664dd7fE>
  4038d4:	d4200020 	brk	#0x1
  4038d8:	d503201f 	nop
  4038dc:	10156e22 	adr	x2, 42e6a0 <etext+0x6a0>
  4038e0:	aa0803e0 	mov	x0, x8
  4038e4:	94009092 	bl	427b2c <_ZN4core9panicking18panic_bounds_check17h7a5004348664dd7fE>
  4038e8:	d4200020 	brk	#0x1
  4038ec:	d503201f 	nop
  4038f0:	10156c02 	adr	x2, 42e670 <etext+0x670>
  4038f4:	aa0803e0 	mov	x0, x8
  4038f8:	9400908d 	bl	427b2c <_ZN4core9panicking18panic_bounds_check17h7a5004348664dd7fE>
  4038fc:	d4200020 	brk	#0x1

0000000000403900 <_ZN4core5slice4sort14break_patterns17hb9fbede4de27f97dE>:
  403900:	d10043ff 	sub	sp, sp, #0x10
  403904:	d1000428 	sub	x8, x1, #0x1
  403908:	ca013429 	eor	x9, x1, x1, lsl #13
  40390c:	dac01108 	clz	x8, x8
  403910:	9280000a 	mov	x10, #0xffffffffffffffff    	// #-1
  403914:	ca491d29 	eor	x9, x9, x9, lsr #7
  403918:	9ac8254b 	lsr	x11, x10, x8
  40391c:	ca09452d 	eor	x13, x9, x9, lsl #17
  403920:	d341fc2a 	lsr	x10, x1, #1
  403924:	8a0b01a9 	and	x9, x13, x11
  403928:	927ff54c 	and	x12, x10, #0x7ffffffffffffffe
  40392c:	eb01013f 	cmp	x9, x1
  403930:	d1000588 	sub	x8, x12, #0x1
  403934:	9a8133ee 	csel	x14, xzr, x1, cc  // cc = lo, ul, last
  403938:	eb01011f 	cmp	x8, x1
  40393c:	540006a2 	b.cs	403a10 <_ZN4core5slice4sort14break_patterns17hb9fbede4de27f97dE+0x110>  // b.hs, b.nlast
  403940:	cb0e0129 	sub	x9, x9, x14
  403944:	eb01013f 	cmp	x9, x1
  403948:	54000582 	b.cs	4039f8 <_ZN4core5slice4sort14break_patterns17hb9fbede4de27f97dE+0xf8>  // b.hs, b.nlast
  40394c:	8b09100e 	add	x14, x0, x9, lsl #4
  403950:	ca0d35a9 	eor	x9, x13, x13, lsl #13
  403954:	8b08100d 	add	x13, x0, x8, lsl #4
  403958:	ca491d28 	eor	x8, x9, x9, lsr #7
  40395c:	a9403dd0 	ldp	x16, x15, [x14]
  403960:	ca084508 	eor	x8, x8, x8, lsl #17
  403964:	a94045b2 	ldp	x18, x17, [x13]
  403968:	8a0b0109 	and	x9, x8, x11
  40396c:	eb01013f 	cmp	x9, x1
  403970:	a9003db0 	stp	x16, x15, [x13]
  403974:	9a8133ed 	csel	x13, xzr, x1, cc  // cc = lo, ul, last
  403978:	eb01019f 	cmp	x12, x1
  40397c:	a90045d2 	stp	x18, x17, [x14]
  403980:	54000462 	b.cs	403a0c <_ZN4core5slice4sort14break_patterns17hb9fbede4de27f97dE+0x10c>  // b.hs, b.nlast
  403984:	cb0d0129 	sub	x9, x9, x13
  403988:	eb01013f 	cmp	x9, x1
  40398c:	54000362 	b.cs	4039f8 <_ZN4core5slice4sort14break_patterns17hb9fbede4de27f97dE+0xf8>  // b.hs, b.nlast
  403990:	ca083508 	eor	x8, x8, x8, lsl #13
  403994:	8b09100d 	add	x13, x0, x9, lsl #4
  403998:	8b0c100c 	add	x12, x0, x12, lsl #4
  40399c:	ca481d08 	eor	x8, x8, x8, lsr #7
  4039a0:	a94039af 	ldp	x15, x14, [x13]
  4039a4:	ca084508 	eor	x8, x8, x8, lsl #17
  4039a8:	a9404191 	ldp	x17, x16, [x12]
  4039ac:	8a0b0109 	and	x9, x8, x11
  4039b0:	b2400148 	orr	x8, x10, #0x1
  4039b4:	eb01013f 	cmp	x9, x1
  4039b8:	9a8133eb 	csel	x11, xzr, x1, cc  // cc = lo, ul, last
  4039bc:	eb01011f 	cmp	x8, x1
  4039c0:	a900398f 	stp	x15, x14, [x12]
  4039c4:	a90041b1 	stp	x17, x16, [x13]
  4039c8:	54000242 	b.cs	403a10 <_ZN4core5slice4sort14break_patterns17hb9fbede4de27f97dE+0x110>  // b.hs, b.nlast
  4039cc:	cb0b0129 	sub	x9, x9, x11
  4039d0:	eb01013f 	cmp	x9, x1
  4039d4:	54000122 	b.cs	4039f8 <_ZN4core5slice4sort14break_patterns17hb9fbede4de27f97dE+0xf8>  // b.hs, b.nlast
  4039d8:	8b091009 	add	x9, x0, x9, lsl #4
  4039dc:	8b081008 	add	x8, x0, x8, lsl #4
  4039e0:	a9402d2a 	ldp	x10, x11, [x9]
  4039e4:	a940350c 	ldp	x12, x13, [x8]
  4039e8:	a9002d0a 	stp	x10, x11, [x8]
  4039ec:	a900352c 	stp	x12, x13, [x9]
  4039f0:	910043ff 	add	sp, sp, #0x10
  4039f4:	d65f03c0 	ret
  4039f8:	d503201f 	nop
  4039fc:	10155e62 	adr	x2, 42e5c8 <etext+0x5c8>
  403a00:	aa0903e0 	mov	x0, x9
  403a04:	9400904a 	bl	427b2c <_ZN4core9panicking18panic_bounds_check17h7a5004348664dd7fE>
  403a08:	d4200020 	brk	#0x1
  403a0c:	aa0c03e8 	mov	x8, x12
  403a10:	d503201f 	nop
  403a14:	10155da2 	adr	x2, 42e5c8 <etext+0x5c8>
  403a18:	aa0803e0 	mov	x0, x8
  403a1c:	94009044 	bl	427b2c <_ZN4core9panicking18panic_bounds_check17h7a5004348664dd7fE>
  403a20:	d4200020 	brk	#0x1

0000000000403a24 <_ZN4core5slice4sort22partial_insertion_sort17h4abe46d4340bd3b8E>:
  403a24:	d10143ff 	sub	sp, sp, #0x50
  403a28:	f9000bfe 	str	x30, [sp, #16]
  403a2c:	a9025ff8 	stp	x24, x23, [sp, #32]
  403a30:	a90357f6 	stp	x22, x21, [sp, #48]
  403a34:	a9044ff4 	stp	x20, x19, [sp, #64]
  403a38:	aa0103f3 	mov	x19, x1
  403a3c:	aa0003f4 	mov	x20, x0
  403a40:	f100c83f 	cmp	x1, #0x32
  403a44:	540000e2 	b.cs	403a60 <_ZN4core5slice4sort22partial_insertion_sort17h4abe46d4340bd3b8E+0x3c>  // b.hs, b.nlast
  403a48:	f9400a88 	ldr	x8, [x20, #16]
  403a4c:	f9400289 	ldr	x9, [x20]
  403a50:	eb09011f 	cmp	x8, x9
  403a54:	54000182 	b.cs	403a84 <_ZN4core5slice4sort22partial_insertion_sort17h4abe46d4340bd3b8E+0x60>  // b.hs, b.nlast
  403a58:	52800028 	mov	w8, #0x1                   	// #1
  403a5c:	14000040 	b	403b5c <_ZN4core5slice4sort22partial_insertion_sort17h4abe46d4340bd3b8E+0x138>
  403a60:	f9400289 	ldr	x9, [x20]
  403a64:	f9400a88 	ldr	x8, [x20, #16]
  403a68:	eb09011f 	cmp	x8, x9
  403a6c:	54000222 	b.cs	403ab0 <_ZN4core5slice4sort22partial_insertion_sort17h4abe46d4340bd3b8E+0x8c>  // b.hs, b.nlast
  403a70:	52800020 	mov	w0, #0x1                   	// #1
  403a74:	f100067f 	cmp	x19, #0x1
  403a78:	54000760 	b.eq	403b64 <_ZN4core5slice4sort22partial_insertion_sort17h4abe46d4340bd3b8E+0x140>  // b.none
  403a7c:	52800035 	mov	w21, #0x1                   	// #1
  403a80:	14000018 	b	403ae0 <_ZN4core5slice4sort22partial_insertion_sort17h4abe46d4340bd3b8E+0xbc>
  403a84:	9100828a 	add	x10, x20, #0x20
  403a88:	52800049 	mov	w9, #0x2                   	// #2
  403a8c:	eb09027f 	cmp	x19, x9
  403a90:	54000640 	b.eq	403b58 <_ZN4core5slice4sort22partial_insertion_sort17h4abe46d4340bd3b8E+0x134>  // b.none
  403a94:	f841054b 	ldr	x11, [x10], #16
  403a98:	91000529 	add	x9, x9, #0x1
  403a9c:	eb08017f 	cmp	x11, x8
  403aa0:	aa0b03e8 	mov	x8, x11
  403aa4:	54ffff42 	b.cs	403a8c <_ZN4core5slice4sort22partial_insertion_sort17h4abe46d4340bd3b8E+0x68>  // b.hs, b.nlast
  403aa8:	d1000528 	sub	x8, x9, #0x1
  403aac:	1400002c 	b	403b5c <_ZN4core5slice4sort22partial_insertion_sort17h4abe46d4340bd3b8E+0x138>
  403ab0:	91008289 	add	x9, x20, #0x20
  403ab4:	5280004a 	mov	w10, #0x2                   	// #2
  403ab8:	eb0a027f 	cmp	x19, x10
  403abc:	54001a80 	b.eq	403e0c <_ZN4core5slice4sort22partial_insertion_sort17h4abe46d4340bd3b8E+0x3e8>  // b.none
  403ac0:	f841052b 	ldr	x11, [x9], #16
  403ac4:	aa0a03f5 	mov	x21, x10
  403ac8:	9100054a 	add	x10, x10, #0x1
  403acc:	eb08017f 	cmp	x11, x8
  403ad0:	aa0b03e8 	mov	x8, x11
  403ad4:	54ffff22 	b.cs	403ab8 <_ZN4core5slice4sort22partial_insertion_sort17h4abe46d4340bd3b8E+0x94>  // b.hs, b.nlast
  403ad8:	eb1302bf 	cmp	x21, x19
  403adc:	1a9f27e0 	cset	w0, cc  // cc = lo, ul, last
  403ae0:	d10006b6 	sub	x22, x21, #0x1
  403ae4:	eb1302df 	cmp	x22, x19
  403ae8:	54001b02 	b.cs	403e48 <_ZN4core5slice4sort22partial_insertion_sort17h4abe46d4340bd3b8E+0x424>  // b.hs, b.nlast
  403aec:	36001a20 	tbz	w0, #0, 403e30 <_ZN4core5slice4sort22partial_insertion_sort17h4abe46d4340bd3b8E+0x40c>
  403af0:	8b151297 	add	x23, x20, x21, lsl #4
  403af4:	8b161298 	add	x24, x20, x22, lsl #4
  403af8:	f1000abf 	cmp	x21, #0x2
  403afc:	a94026e8 	ldp	x8, x9, [x23]
  403b00:	a9402f0a 	ldp	x10, x11, [x24]
  403b04:	a9002708 	stp	x8, x9, [x24]
  403b08:	a9002eea 	stp	x10, x11, [x23]
  403b0c:	54000103 	b.cc	403b2c <_ZN4core5slice4sort22partial_insertion_sort17h4abe46d4340bd3b8E+0x108>  // b.lo, b.ul, b.last
  403b10:	aa1403e0 	mov	x0, x20
  403b14:	aa1503e1 	mov	x1, x21
  403b18:	aa1603e2 	mov	x2, x22
  403b1c:	940000d1 	bl	403e60 <_ZN4core5slice4sort25insertion_sort_shift_left17hb9e4089ee7332f03E>
  403b20:	aa1403e0 	mov	x0, x20
  403b24:	aa1503e1 	mov	x1, x21
  403b28:	940000fb 	bl	403f14 <_ZN4core5slice4sort26insertion_sort_shift_right17h6933c91a9dd2be46E>
  403b2c:	eb1302bf 	cmp	x21, x19
  403b30:	540017c2 	b.cs	403e28 <_ZN4core5slice4sort22partial_insertion_sort17h4abe46d4340bd3b8E+0x404>  // b.hs, b.nlast
  403b34:	f9400309 	ldr	x9, [x24]
  403b38:	f94002e8 	ldr	x8, [x23]
  403b3c:	eb09011f 	cmp	x8, x9
  403b40:	540001e2 	b.cs	403b7c <_ZN4core5slice4sort22partial_insertion_sort17h4abe46d4340bd3b8E+0x158>  // b.hs, b.nlast
  403b44:	52800028 	mov	w8, #0x1                   	// #1
  403b48:	d10006b6 	sub	x22, x21, #0x1
  403b4c:	eb1302df 	cmp	x22, x19
  403b50:	54000343 	b.cc	403bb8 <_ZN4core5slice4sort22partial_insertion_sort17h4abe46d4340bd3b8E+0x194>  // b.lo, b.ul, b.last
  403b54:	140000bd 	b	403e48 <_ZN4core5slice4sort22partial_insertion_sort17h4abe46d4340bd3b8E+0x424>
  403b58:	aa1303e8 	mov	x8, x19
  403b5c:	eb13011f 	cmp	x8, x19
  403b60:	1a9f17e0 	cset	w0, eq  // eq = none
  403b64:	a9444ff4 	ldp	x20, x19, [sp, #64]
  403b68:	a94357f6 	ldp	x22, x21, [sp, #48]
  403b6c:	a9425ff8 	ldp	x24, x23, [sp, #32]
  403b70:	f9400bfe 	ldr	x30, [sp, #16]
  403b74:	910143ff 	add	sp, sp, #0x50
  403b78:	d65f03c0 	ret
  403b7c:	8b151289 	add	x9, x20, x21, lsl #4
  403b80:	d100066a 	sub	x10, x19, #0x1
  403b84:	91004129 	add	x9, x9, #0x10
  403b88:	eb15015f 	cmp	x10, x21
  403b8c:	54001400 	b.eq	403e0c <_ZN4core5slice4sort22partial_insertion_sort17h4abe46d4340bd3b8E+0x3e8>  // b.none
  403b90:	f841052b 	ldr	x11, [x9], #16
  403b94:	910006b5 	add	x21, x21, #0x1
  403b98:	eb08017f 	cmp	x11, x8
  403b9c:	aa0b03e8 	mov	x8, x11
  403ba0:	54ffff42 	b.cs	403b88 <_ZN4core5slice4sort22partial_insertion_sort17h4abe46d4340bd3b8E+0x164>  // b.hs, b.nlast
  403ba4:	eb1302bf 	cmp	x21, x19
  403ba8:	1a9f27e8 	cset	w8, cc  // cc = lo, ul, last
  403bac:	d10006b6 	sub	x22, x21, #0x1
  403bb0:	eb1302df 	cmp	x22, x19
  403bb4:	540014a2 	b.cs	403e48 <_ZN4core5slice4sort22partial_insertion_sort17h4abe46d4340bd3b8E+0x424>  // b.hs, b.nlast
  403bb8:	340013c8 	cbz	w8, 403e30 <_ZN4core5slice4sort22partial_insertion_sort17h4abe46d4340bd3b8E+0x40c>
  403bbc:	8b151297 	add	x23, x20, x21, lsl #4
  403bc0:	8b161298 	add	x24, x20, x22, lsl #4
  403bc4:	f1000abf 	cmp	x21, #0x2
  403bc8:	a94026e8 	ldp	x8, x9, [x23]
  403bcc:	a9402f0a 	ldp	x10, x11, [x24]
  403bd0:	a9002708 	stp	x8, x9, [x24]
  403bd4:	a9002eea 	stp	x10, x11, [x23]
  403bd8:	54000103 	b.cc	403bf8 <_ZN4core5slice4sort22partial_insertion_sort17h4abe46d4340bd3b8E+0x1d4>  // b.lo, b.ul, b.last
  403bdc:	aa1403e0 	mov	x0, x20
  403be0:	aa1503e1 	mov	x1, x21
  403be4:	aa1603e2 	mov	x2, x22
  403be8:	9400009e 	bl	403e60 <_ZN4core5slice4sort25insertion_sort_shift_left17hb9e4089ee7332f03E>
  403bec:	aa1403e0 	mov	x0, x20
  403bf0:	aa1503e1 	mov	x1, x21
  403bf4:	940000c8 	bl	403f14 <_ZN4core5slice4sort26insertion_sort_shift_right17h6933c91a9dd2be46E>
  403bf8:	eb1302bf 	cmp	x21, x19
  403bfc:	54001162 	b.cs	403e28 <_ZN4core5slice4sort22partial_insertion_sort17h4abe46d4340bd3b8E+0x404>  // b.hs, b.nlast
  403c00:	f9400309 	ldr	x9, [x24]
  403c04:	f94002e8 	ldr	x8, [x23]
  403c08:	eb09011f 	cmp	x8, x9
  403c0c:	540000c2 	b.cs	403c24 <_ZN4core5slice4sort22partial_insertion_sort17h4abe46d4340bd3b8E+0x200>  // b.hs, b.nlast
  403c10:	52800028 	mov	w8, #0x1                   	// #1
  403c14:	d10006b6 	sub	x22, x21, #0x1
  403c18:	eb1302df 	cmp	x22, x19
  403c1c:	54000223 	b.cc	403c60 <_ZN4core5slice4sort22partial_insertion_sort17h4abe46d4340bd3b8E+0x23c>  // b.lo, b.ul, b.last
  403c20:	1400008a 	b	403e48 <_ZN4core5slice4sort22partial_insertion_sort17h4abe46d4340bd3b8E+0x424>
  403c24:	8b151289 	add	x9, x20, x21, lsl #4
  403c28:	d100066a 	sub	x10, x19, #0x1
  403c2c:	91004129 	add	x9, x9, #0x10
  403c30:	eb15015f 	cmp	x10, x21
  403c34:	54000ec0 	b.eq	403e0c <_ZN4core5slice4sort22partial_insertion_sort17h4abe46d4340bd3b8E+0x3e8>  // b.none
  403c38:	f841052b 	ldr	x11, [x9], #16
  403c3c:	910006b5 	add	x21, x21, #0x1
  403c40:	eb08017f 	cmp	x11, x8
  403c44:	aa0b03e8 	mov	x8, x11
  403c48:	54ffff42 	b.cs	403c30 <_ZN4core5slice4sort22partial_insertion_sort17h4abe46d4340bd3b8E+0x20c>  // b.hs, b.nlast
  403c4c:	eb1302bf 	cmp	x21, x19
  403c50:	1a9f27e8 	cset	w8, cc  // cc = lo, ul, last
  403c54:	d10006b6 	sub	x22, x21, #0x1
  403c58:	eb1302df 	cmp	x22, x19
  403c5c:	54000f62 	b.cs	403e48 <_ZN4core5slice4sort22partial_insertion_sort17h4abe46d4340bd3b8E+0x424>  // b.hs, b.nlast
  403c60:	34000e88 	cbz	w8, 403e30 <_ZN4core5slice4sort22partial_insertion_sort17h4abe46d4340bd3b8E+0x40c>
  403c64:	8b151297 	add	x23, x20, x21, lsl #4
  403c68:	8b161298 	add	x24, x20, x22, lsl #4
  403c6c:	f1000abf 	cmp	x21, #0x2
  403c70:	a94026e8 	ldp	x8, x9, [x23]
  403c74:	a9402f0a 	ldp	x10, x11, [x24]
  403c78:	a9002708 	stp	x8, x9, [x24]
  403c7c:	a9002eea 	stp	x10, x11, [x23]
  403c80:	54000103 	b.cc	403ca0 <_ZN4core5slice4sort22partial_insertion_sort17h4abe46d4340bd3b8E+0x27c>  // b.lo, b.ul, b.last
  403c84:	aa1403e0 	mov	x0, x20
  403c88:	aa1503e1 	mov	x1, x21
  403c8c:	aa1603e2 	mov	x2, x22
  403c90:	94000074 	bl	403e60 <_ZN4core5slice4sort25insertion_sort_shift_left17hb9e4089ee7332f03E>
  403c94:	aa1403e0 	mov	x0, x20
  403c98:	aa1503e1 	mov	x1, x21
  403c9c:	9400009e 	bl	403f14 <_ZN4core5slice4sort26insertion_sort_shift_right17h6933c91a9dd2be46E>
  403ca0:	eb1302bf 	cmp	x21, x19
  403ca4:	54000c22 	b.cs	403e28 <_ZN4core5slice4sort22partial_insertion_sort17h4abe46d4340bd3b8E+0x404>  // b.hs, b.nlast
  403ca8:	f9400309 	ldr	x9, [x24]
  403cac:	f94002e8 	ldr	x8, [x23]
  403cb0:	eb09011f 	cmp	x8, x9
  403cb4:	540000c2 	b.cs	403ccc <_ZN4core5slice4sort22partial_insertion_sort17h4abe46d4340bd3b8E+0x2a8>  // b.hs, b.nlast
  403cb8:	52800028 	mov	w8, #0x1                   	// #1
  403cbc:	d10006b6 	sub	x22, x21, #0x1
  403cc0:	eb1302df 	cmp	x22, x19
  403cc4:	54000223 	b.cc	403d08 <_ZN4core5slice4sort22partial_insertion_sort17h4abe46d4340bd3b8E+0x2e4>  // b.lo, b.ul, b.last
  403cc8:	14000060 	b	403e48 <_ZN4core5slice4sort22partial_insertion_sort17h4abe46d4340bd3b8E+0x424>
  403ccc:	8b151289 	add	x9, x20, x21, lsl #4
  403cd0:	d100066a 	sub	x10, x19, #0x1
  403cd4:	91004129 	add	x9, x9, #0x10
  403cd8:	eb15015f 	cmp	x10, x21
  403cdc:	54000980 	b.eq	403e0c <_ZN4core5slice4sort22partial_insertion_sort17h4abe46d4340bd3b8E+0x3e8>  // b.none
  403ce0:	f841052b 	ldr	x11, [x9], #16
  403ce4:	910006b5 	add	x21, x21, #0x1
  403ce8:	eb08017f 	cmp	x11, x8
  403cec:	aa0b03e8 	mov	x8, x11
  403cf0:	54ffff42 	b.cs	403cd8 <_ZN4core5slice4sort22partial_insertion_sort17h4abe46d4340bd3b8E+0x2b4>  // b.hs, b.nlast
  403cf4:	eb1302bf 	cmp	x21, x19
  403cf8:	1a9f27e8 	cset	w8, cc  // cc = lo, ul, last
  403cfc:	d10006b6 	sub	x22, x21, #0x1
  403d00:	eb1302df 	cmp	x22, x19
  403d04:	54000a22 	b.cs	403e48 <_ZN4core5slice4sort22partial_insertion_sort17h4abe46d4340bd3b8E+0x424>  // b.hs, b.nlast
  403d08:	34000948 	cbz	w8, 403e30 <_ZN4core5slice4sort22partial_insertion_sort17h4abe46d4340bd3b8E+0x40c>
  403d0c:	8b151297 	add	x23, x20, x21, lsl #4
  403d10:	8b161298 	add	x24, x20, x22, lsl #4
  403d14:	f1000abf 	cmp	x21, #0x2
  403d18:	a94026e8 	ldp	x8, x9, [x23]
  403d1c:	a9402f0a 	ldp	x10, x11, [x24]
  403d20:	a9002708 	stp	x8, x9, [x24]
  403d24:	a9002eea 	stp	x10, x11, [x23]
  403d28:	54000103 	b.cc	403d48 <_ZN4core5slice4sort22partial_insertion_sort17h4abe46d4340bd3b8E+0x324>  // b.lo, b.ul, b.last
  403d2c:	aa1403e0 	mov	x0, x20
  403d30:	aa1503e1 	mov	x1, x21
  403d34:	aa1603e2 	mov	x2, x22
  403d38:	9400004a 	bl	403e60 <_ZN4core5slice4sort25insertion_sort_shift_left17hb9e4089ee7332f03E>
  403d3c:	aa1403e0 	mov	x0, x20
  403d40:	aa1503e1 	mov	x1, x21
  403d44:	94000074 	bl	403f14 <_ZN4core5slice4sort26insertion_sort_shift_right17h6933c91a9dd2be46E>
  403d48:	eb1302bf 	cmp	x21, x19
  403d4c:	540006e2 	b.cs	403e28 <_ZN4core5slice4sort22partial_insertion_sort17h4abe46d4340bd3b8E+0x404>  // b.hs, b.nlast
  403d50:	f9400309 	ldr	x9, [x24]
  403d54:	f94002e8 	ldr	x8, [x23]
  403d58:	eb09011f 	cmp	x8, x9
  403d5c:	540000c2 	b.cs	403d74 <_ZN4core5slice4sort22partial_insertion_sort17h4abe46d4340bd3b8E+0x350>  // b.hs, b.nlast
  403d60:	52800028 	mov	w8, #0x1                   	// #1
  403d64:	d10006b6 	sub	x22, x21, #0x1
  403d68:	eb1302df 	cmp	x22, x19
  403d6c:	54000223 	b.cc	403db0 <_ZN4core5slice4sort22partial_insertion_sort17h4abe46d4340bd3b8E+0x38c>  // b.lo, b.ul, b.last
  403d70:	14000036 	b	403e48 <_ZN4core5slice4sort22partial_insertion_sort17h4abe46d4340bd3b8E+0x424>
  403d74:	8b151289 	add	x9, x20, x21, lsl #4
  403d78:	d100066a 	sub	x10, x19, #0x1
  403d7c:	91004129 	add	x9, x9, #0x10
  403d80:	eb15015f 	cmp	x10, x21
  403d84:	54000440 	b.eq	403e0c <_ZN4core5slice4sort22partial_insertion_sort17h4abe46d4340bd3b8E+0x3e8>  // b.none
  403d88:	f841052b 	ldr	x11, [x9], #16
  403d8c:	910006b5 	add	x21, x21, #0x1
  403d90:	eb08017f 	cmp	x11, x8
  403d94:	aa0b03e8 	mov	x8, x11
  403d98:	54ffff42 	b.cs	403d80 <_ZN4core5slice4sort22partial_insertion_sort17h4abe46d4340bd3b8E+0x35c>  // b.hs, b.nlast
  403d9c:	eb1302bf 	cmp	x21, x19
  403da0:	1a9f27e8 	cset	w8, cc  // cc = lo, ul, last
  403da4:	d10006b6 	sub	x22, x21, #0x1
  403da8:	eb1302df 	cmp	x22, x19
  403dac:	540004e2 	b.cs	403e48 <_ZN4core5slice4sort22partial_insertion_sort17h4abe46d4340bd3b8E+0x424>  // b.hs, b.nlast
  403db0:	34000408 	cbz	w8, 403e30 <_ZN4core5slice4sort22partial_insertion_sort17h4abe46d4340bd3b8E+0x40c>
  403db4:	8b151288 	add	x8, x20, x21, lsl #4
  403db8:	8b161289 	add	x9, x20, x22, lsl #4
  403dbc:	f1000abf 	cmp	x21, #0x2
  403dc0:	a9402d0a 	ldp	x10, x11, [x8]
  403dc4:	a940352c 	ldp	x12, x13, [x9]
  403dc8:	a9002d2a 	stp	x10, x11, [x9]
  403dcc:	a900350c 	stp	x12, x13, [x8]
  403dd0:	54000103 	b.cc	403df0 <_ZN4core5slice4sort22partial_insertion_sort17h4abe46d4340bd3b8E+0x3cc>  // b.lo, b.ul, b.last
  403dd4:	aa1403e0 	mov	x0, x20
  403dd8:	aa1503e1 	mov	x1, x21
  403ddc:	aa1603e2 	mov	x2, x22
  403de0:	94000020 	bl	403e60 <_ZN4core5slice4sort25insertion_sort_shift_left17hb9e4089ee7332f03E>
  403de4:	aa1403e0 	mov	x0, x20
  403de8:	aa1503e1 	mov	x1, x21
  403dec:	9400004a 	bl	403f14 <_ZN4core5slice4sort26insertion_sort_shift_right17h6933c91a9dd2be46E>
  403df0:	2a1f03e0 	mov	w0, wzr
  403df4:	a9444ff4 	ldp	x20, x19, [sp, #64]
  403df8:	a94357f6 	ldp	x22, x21, [sp, #48]
  403dfc:	a9425ff8 	ldp	x24, x23, [sp, #32]
  403e00:	f9400bfe 	ldr	x30, [sp, #16]
  403e04:	910143ff 	add	sp, sp, #0x50
  403e08:	d65f03c0 	ret
  403e0c:	52800020 	mov	w0, #0x1                   	// #1
  403e10:	a9444ff4 	ldp	x20, x19, [sp, #64]
  403e14:	a94357f6 	ldp	x22, x21, [sp, #48]
  403e18:	a9425ff8 	ldp	x24, x23, [sp, #32]
  403e1c:	f9400bfe 	ldr	x30, [sp, #16]
  403e20:	910143ff 	add	sp, sp, #0x50
  403e24:	d65f03c0 	ret
  403e28:	eb1302df 	cmp	x22, x19
  403e2c:	540000e2 	b.cs	403e48 <_ZN4core5slice4sort22partial_insertion_sort17h4abe46d4340bd3b8E+0x424>  // b.hs, b.nlast
  403e30:	d503201f 	nop
  403e34:	10153d62 	adr	x2, 42e5e0 <etext+0x5e0>
  403e38:	aa1503e0 	mov	x0, x21
  403e3c:	aa1303e1 	mov	x1, x19
  403e40:	94008f3b 	bl	427b2c <_ZN4core9panicking18panic_bounds_check17h7a5004348664dd7fE>
  403e44:	d4200020 	brk	#0x1
  403e48:	d503201f 	nop
  403e4c:	10153ca2 	adr	x2, 42e5e0 <etext+0x5e0>
  403e50:	aa1603e0 	mov	x0, x22
  403e54:	aa1303e1 	mov	x1, x19
  403e58:	94008f35 	bl	427b2c <_ZN4core9panicking18panic_bounds_check17h7a5004348664dd7fE>
  403e5c:	d4200020 	brk	#0x1

0000000000403e60 <_ZN4core5slice4sort25insertion_sort_shift_left17hb9e4089ee7332f03E>:
  403e60:	d1000448 	sub	x8, x2, #0x1
  403e64:	eb01011f 	cmp	x8, x1
  403e68:	54000482 	b.cs	403ef8 <_ZN4core5slice4sort25insertion_sort_shift_left17hb9e4089ee7332f03E+0x98>  // b.hs, b.nlast
  403e6c:	eb01005f 	cmp	x2, x1
  403e70:	54000422 	b.cs	403ef4 <_ZN4core5slice4sort25insertion_sort_shift_left17hb9e4089ee7332f03E+0x94>  // b.hs, b.nlast
  403e74:	8b021008 	add	x8, x0, x2, lsl #4
  403e78:	d1004108 	sub	x8, x8, #0x10
  403e7c:	14000006 	b	403e94 <_ZN4core5slice4sort25insertion_sort_shift_left17hb9e4089ee7332f03E+0x34>
  403e80:	a9002d49 	stp	x9, x11, [x10]
  403e84:	91000442 	add	x2, x2, #0x1
  403e88:	91004108 	add	x8, x8, #0x10
  403e8c:	eb01005f 	cmp	x2, x1
  403e90:	54000320 	b.eq	403ef4 <_ZN4core5slice4sort25insertion_sort_shift_left17hb9e4089ee7332f03E+0x94>  // b.none
  403e94:	8b02100c 	add	x12, x0, x2, lsl #4
  403e98:	aa0c03ea 	mov	x10, x12
  403e9c:	f9400189 	ldr	x9, [x12]
  403ea0:	f85f0d4b 	ldr	x11, [x10, #-16]!
  403ea4:	eb0b013f 	cmp	x9, x11
  403ea8:	54fffee2 	b.cs	403e84 <_ZN4core5slice4sort25insertion_sort_shift_left17hb9e4089ee7332f03E+0x24>  // b.hs, b.nlast
  403eac:	a940394d 	ldp	x13, x14, [x10]
  403eb0:	f100045f 	cmp	x2, #0x1
  403eb4:	f940058b 	ldr	x11, [x12, #8]
  403eb8:	a900398d 	stp	x13, x14, [x12]
  403ebc:	54fffe20 	b.eq	403e80 <_ZN4core5slice4sort25insertion_sort_shift_left17hb9e4089ee7332f03E+0x20>  // b.none
  403ec0:	aa0803ea 	mov	x10, x8
  403ec4:	5280002c 	mov	w12, #0x1                   	// #1
  403ec8:	aa0a03ed 	mov	x13, x10
  403ecc:	f85f0dae 	ldr	x14, [x13, #-16]!
  403ed0:	eb0e013f 	cmp	x9, x14
  403ed4:	54fffd62 	b.cs	403e80 <_ZN4core5slice4sort25insertion_sort_shift_left17hb9e4089ee7332f03E+0x20>  // b.hs, b.nlast
  403ed8:	a94035ae 	ldp	x14, x13, [x13]
  403edc:	9100058c 	add	x12, x12, #0x1
  403ee0:	eb0c005f 	cmp	x2, x12
  403ee4:	a8bf354e 	stp	x14, x13, [x10], #-16
  403ee8:	54ffff01 	b.ne	403ec8 <_ZN4core5slice4sort25insertion_sort_shift_left17hb9e4089ee7332f03E+0x68>  // b.any
  403eec:	aa0003ea 	mov	x10, x0
  403ef0:	17ffffe4 	b	403e80 <_ZN4core5slice4sort25insertion_sort_shift_left17hb9e4089ee7332f03E+0x20>
  403ef4:	d65f03c0 	ret
  403ef8:	d503201f 	nop
  403efc:	101537e0 	adr	x0, 42e5f8 <etext+0x5f8>
  403f00:	d503201f 	nop
  403f04:	10153922 	adr	x2, 42e628 <etext+0x628>
  403f08:	528005c1 	mov	w1, #0x2e                  	// #46
  403f0c:	940091ab 	bl	4285b8 <_ZN4core9panicking5panic17h7622c9da94764cc6E>
  403f10:	d4200020 	brk	#0x1

0000000000403f14 <_ZN4core5slice4sort26insertion_sort_shift_right17h6933c91a9dd2be46E>:
  403f14:	aa0003ea 	mov	x10, x0
  403f18:	f9400008 	ldr	x8, [x0]
  403f1c:	f8410d49 	ldr	x9, [x10, #16]!
  403f20:	eb08013f 	cmp	x9, x8
  403f24:	540002e2 	b.cs	403f80 <_ZN4core5slice4sort26insertion_sort_shift_right17h6933c91a9dd2be46E+0x6c>  // b.hs, b.nlast
  403f28:	a940314b 	ldp	x11, x12, [x10]
  403f2c:	f1000c3f 	cmp	x1, #0x3
  403f30:	f9400409 	ldr	x9, [x0, #8]
  403f34:	a900300b 	stp	x11, x12, [x0]
  403f38:	54000223 	b.cc	403f7c <_ZN4core5slice4sort26insertion_sort_shift_right17h6933c91a9dd2be46E+0x68>  // b.lo, b.ul, b.last
  403f3c:	f8420c0b 	ldr	x11, [x0, #32]!
  403f40:	eb08017f 	cmp	x11, x8
  403f44:	540001c2 	b.cs	403f7c <_ZN4core5slice4sort26insertion_sort_shift_right17h6933c91a9dd2be46E+0x68>  // b.hs, b.nlast
  403f48:	d100082b 	sub	x11, x1, #0x2
  403f4c:	a940300a 	ldp	x10, x12, [x0]
  403f50:	f100056b 	subs	x11, x11, #0x1
  403f54:	a93f300a 	stp	x10, x12, [x0, #-16]
  403f58:	54000100 	b.eq	403f78 <_ZN4core5slice4sort26insertion_sort_shift_right17h6933c91a9dd2be46E+0x64>  // b.none
  403f5c:	9100400c 	add	x12, x0, #0x10
  403f60:	f940080d 	ldr	x13, [x0, #16]
  403f64:	aa0003ea 	mov	x10, x0
  403f68:	aa0c03e0 	mov	x0, x12
  403f6c:	eb0801bf 	cmp	x13, x8
  403f70:	54fffee3 	b.cc	403f4c <_ZN4core5slice4sort26insertion_sort_shift_right17h6933c91a9dd2be46E+0x38>  // b.lo, b.ul, b.last
  403f74:	14000002 	b	403f7c <_ZN4core5slice4sort26insertion_sort_shift_right17h6933c91a9dd2be46E+0x68>
  403f78:	aa0003ea 	mov	x10, x0
  403f7c:	a9002548 	stp	x8, x9, [x10]
  403f80:	d65f03c0 	ret

0000000000403f84 <_ZN4core5slice4sort7recurse17h42b981fe64c334b9E>:
  403f84:	d105c3ff 	sub	sp, sp, #0x170
  403f88:	a9117bfd 	stp	x29, x30, [sp, #272]
  403f8c:	a9126ffc 	stp	x28, x27, [sp, #288]
  403f90:	a91367fa 	stp	x26, x25, [sp, #304]
  403f94:	a9145ff8 	stp	x24, x23, [sp, #320]
  403f98:	a91557f6 	stp	x22, x21, [sp, #336]
  403f9c:	a9164ff4 	stp	x20, x19, [sp, #352]
  403fa0:	aa0103f7 	mov	x23, x1
  403fa4:	aa0003f6 	mov	x22, x0
  403fa8:	f100543f 	cmp	x1, #0x15
  403fac:	54000222 	b.cs	403ff0 <_ZN4core5slice4sort7recurse17h42b981fe64c334b9E+0x6c>  // b.hs, b.nlast
  403fb0:	aa1703fa 	mov	x26, x23
  403fb4:	aa1603f8 	mov	x24, x22
  403fb8:	f100075f 	cmp	x26, #0x1
  403fbc:	540000a9 	b.ls	403fd0 <_ZN4core5slice4sort7recurse17h42b981fe64c334b9E+0x4c>  // b.plast
  403fc0:	aa1803e0 	mov	x0, x24
  403fc4:	aa1a03e1 	mov	x1, x26
  403fc8:	52800022 	mov	w2, #0x1                   	// #1
  403fcc:	97ffffa5 	bl	403e60 <_ZN4core5slice4sort25insertion_sort_shift_left17hb9e4089ee7332f03E>
  403fd0:	a9564ff4 	ldp	x20, x19, [sp, #352]
  403fd4:	a95557f6 	ldp	x22, x21, [sp, #336]
  403fd8:	a9545ff8 	ldp	x24, x23, [sp, #320]
  403fdc:	a95367fa 	ldp	x26, x25, [sp, #304]
  403fe0:	a9526ffc 	ldp	x28, x27, [sp, #288]
  403fe4:	a9517bfd 	ldp	x29, x30, [sp, #272]
  403fe8:	9105c3ff 	add	sp, sp, #0x170
  403fec:	d65f03c0 	ret
  403ff0:	2a0403f3 	mov	w19, w4
  403ff4:	aa0303f5 	mov	x21, x3
  403ff8:	aa0203f4 	mov	x20, x2
  403ffc:	5280003b 	mov	w27, #0x1                   	// #1
  404000:	5280003c 	mov	w28, #0x1                   	// #1
  404004:	0a1c037c 	and	w28, w27, w28
  404008:	aa1603f8 	mov	x24, x22
  40400c:	aa1703f9 	mov	x25, x23
  404010:	340037b3 	cbz	w19, 404704 <_ZN4core5slice4sort7recurse17h42b981fe64c334b9E+0x780>
  404014:	36000bbb 	tbz	w27, #0, 404188 <_ZN4core5slice4sort7recurse17h42b981fe64c334b9E+0x204>
  404018:	d342ff29 	lsr	x9, x25, #2
  40401c:	f100c73f 	cmp	x25, #0x31
  404020:	d37ff93a 	lsl	x26, x9, #1
  404024:	8b090348 	add	x8, x26, x9
  404028:	54000c29 	b.ls	4041ac <_ZN4core5slice4sort7recurse17h42b981fe64c334b9E+0x228>  // b.plast
  40402c:	d100052a 	sub	x10, x9, #0x1
  404030:	d37ced2b 	lsl	x11, x9, #4
  404034:	d37ced4d 	lsl	x13, x10, #4
  404038:	f86b6b0c 	ldr	x12, [x24, x11]
  40403c:	f86d6b0b 	ldr	x11, [x24, x13]
  404040:	eb0b019f 	cmp	x12, x11
  404044:	540000e2 	b.cs	404060 <_ZN4core5slice4sort7recurse17h42b981fe64c334b9E+0xdc>  // b.hs, b.nlast
  404048:	aa0c03ef 	mov	x15, x12
  40404c:	5280002d 	mov	w13, #0x1                   	// #1
  404050:	aa0a03f0 	mov	x16, x10
  404054:	aa0903ea 	mov	x10, x9
  404058:	aa0b03ec 	mov	x12, x11
  40405c:	14000004 	b	40406c <_ZN4core5slice4sort7recurse17h42b981fe64c334b9E+0xe8>
  404060:	aa1f03ed 	mov	x13, xzr
  404064:	aa0b03ef 	mov	x15, x11
  404068:	aa0903f0 	mov	x16, x9
  40406c:	91000529 	add	x9, x9, #0x1
  404070:	d37cef4e 	lsl	x14, x26, #4
  404074:	d37ced2b 	lsl	x11, x9, #4
  404078:	f86e6b11 	ldr	x17, [x24, x14]
  40407c:	f86b6b12 	ldr	x18, [x24, x11]
  404080:	d100074b 	sub	x11, x26, #0x1
  404084:	d37ced60 	lsl	x0, x11, #4
  404088:	eb0c025f 	cmp	x18, x12
  40408c:	f8606b0e 	ldr	x14, [x24, x0]
  404090:	9a8c324c 	csel	x12, x18, x12, cc  // cc = lo, ul, last
  404094:	9a903129 	csel	x9, x9, x16, cc  // cc = lo, ul, last
  404098:	9a8d25ad 	cinc	x13, x13, cc  // cc = lo, ul, last
  40409c:	eb0f019f 	cmp	x12, x15
  4040a0:	9a8d25ad 	cinc	x13, x13, cc  // cc = lo, ul, last
  4040a4:	9a893149 	csel	x9, x10, x9, cc  // cc = lo, ul, last
  4040a8:	eb0e023f 	cmp	x17, x14
  4040ac:	540000c2 	b.cs	4040c4 <_ZN4core5slice4sort7recurse17h42b981fe64c334b9E+0x140>  // b.hs, b.nlast
  4040b0:	910005ad 	add	x13, x13, #0x1
  4040b4:	aa1103ea 	mov	x10, x17
  4040b8:	aa0b03ef 	mov	x15, x11
  4040bc:	aa1a03eb 	mov	x11, x26
  4040c0:	14000004 	b	4040d0 <_ZN4core5slice4sort7recurse17h42b981fe64c334b9E+0x14c>
  4040c4:	aa0e03ea 	mov	x10, x14
  4040c8:	aa1a03ef 	mov	x15, x26
  4040cc:	aa1103ee 	mov	x14, x17
  4040d0:	b2400352 	orr	x18, x26, #0x1
  4040d4:	d37ced10 	lsl	x16, x8, #4
  4040d8:	d37cee4c 	lsl	x12, x18, #4
  4040dc:	f8706b11 	ldr	x17, [x24, x16]
  4040e0:	f86c6b00 	ldr	x0, [x24, x12]
  4040e4:	d100050c 	sub	x12, x8, #0x1
  4040e8:	d37ced81 	lsl	x1, x12, #4
  4040ec:	eb0e001f 	cmp	x0, x14
  4040f0:	f8616b10 	ldr	x16, [x24, x1]
  4040f4:	9a8e300e 	csel	x14, x0, x14, cc  // cc = lo, ul, last
  4040f8:	9a8f324f 	csel	x15, x18, x15, cc  // cc = lo, ul, last
  4040fc:	9a8d25ad 	cinc	x13, x13, cc  // cc = lo, ul, last
  404100:	eb0a01df 	cmp	x14, x10
  404104:	9a8d25aa 	cinc	x10, x13, cc  // cc = lo, ul, last
  404108:	9a8f317a 	csel	x26, x11, x15, cc  // cc = lo, ul, last
  40410c:	eb10023f 	cmp	x17, x16
  404110:	540000c2 	b.cs	404128 <_ZN4core5slice4sort7recurse17h42b981fe64c334b9E+0x1a4>  // b.hs, b.nlast
  404114:	9100054a 	add	x10, x10, #0x1
  404118:	aa1103eb 	mov	x11, x17
  40411c:	aa0c03ed 	mov	x13, x12
  404120:	aa0803ec 	mov	x12, x8
  404124:	14000004 	b	404134 <_ZN4core5slice4sort7recurse17h42b981fe64c334b9E+0x1b0>
  404128:	aa1003eb 	mov	x11, x16
  40412c:	aa0803ed 	mov	x13, x8
  404130:	aa1103f0 	mov	x16, x17
  404134:	91000508 	add	x8, x8, #0x1
  404138:	d37ced0e 	lsl	x14, x8, #4
  40413c:	f86e6b0e 	ldr	x14, [x24, x14]
  404140:	eb1001df 	cmp	x14, x16
  404144:	9a9031ce 	csel	x14, x14, x16, cc  // cc = lo, ul, last
  404148:	9a8a254a 	cinc	x10, x10, cc  // cc = lo, ul, last
  40414c:	9a8d3108 	csel	x8, x8, x13, cc  // cc = lo, ul, last
  404150:	eb0b01df 	cmp	x14, x11
  404154:	9a8a254a 	cinc	x10, x10, cc  // cc = lo, ul, last
  404158:	9a883188 	csel	x8, x12, x8, cc  // cc = lo, ul, last
  40415c:	d37cef4b 	lsl	x11, x26, #4
  404160:	d37ced2c 	lsl	x12, x9, #4
  404164:	f86b6b0e 	ldr	x14, [x24, x11]
  404168:	f86c6b0b 	ldr	x11, [x24, x12]
  40416c:	eb0b01df 	cmp	x14, x11
  404170:	540002c3 	b.cc	4041c8 <_ZN4core5slice4sort7recurse17h42b981fe64c334b9E+0x244>  // b.lo, b.ul, b.last
  404174:	aa0b03ec 	mov	x12, x11
  404178:	aa1a03ed 	mov	x13, x26
  40417c:	aa0903fa 	mov	x26, x9
  404180:	aa0e03eb 	mov	x11, x14
  404184:	14000014 	b	4041d4 <_ZN4core5slice4sort7recurse17h42b981fe64c334b9E+0x250>
  404188:	aa1803e0 	mov	x0, x24
  40418c:	aa1903e1 	mov	x1, x25
  404190:	97fffddc 	bl	403900 <_ZN4core5slice4sort14break_patterns17hb9fbede4de27f97dE>
  404194:	51000673 	sub	w19, w19, #0x1
  404198:	d342ff29 	lsr	x9, x25, #2
  40419c:	f100c73f 	cmp	x25, #0x31
  4041a0:	d37ff93a 	lsl	x26, x9, #1
  4041a4:	8b090348 	add	x8, x26, x9
  4041a8:	54fff428 	b.hi	40402c <_ZN4core5slice4sort7recurse17h42b981fe64c334b9E+0xa8>  // b.pmore
  4041ac:	aa1f03ea 	mov	x10, xzr
  4041b0:	d37cef4b 	lsl	x11, x26, #4
  4041b4:	d37ced2c 	lsl	x12, x9, #4
  4041b8:	f86b6b0e 	ldr	x14, [x24, x11]
  4041bc:	f86c6b0b 	ldr	x11, [x24, x12]
  4041c0:	eb0b01df 	cmp	x14, x11
  4041c4:	54fffd82 	b.cs	404174 <_ZN4core5slice4sort7recurse17h42b981fe64c334b9E+0x1f0>  // b.hs, b.nlast
  4041c8:	9100054a 	add	x10, x10, #0x1
  4041cc:	aa0e03ec 	mov	x12, x14
  4041d0:	aa0903ed 	mov	x13, x9
  4041d4:	d37ced09 	lsl	x9, x8, #4
  4041d8:	f8696b0e 	ldr	x14, [x24, x9]
  4041dc:	eb0b01df 	cmp	x14, x11
  4041e0:	9a8a2549 	cinc	x9, x10, cc  // cc = lo, ul, last
  4041e4:	9a8d3108 	csel	x8, x8, x13, cc  // cc = lo, ul, last
  4041e8:	9a8b31ca 	csel	x10, x14, x11, cc  // cc = lo, ul, last
  4041ec:	eb0c015f 	cmp	x10, x12
  4041f0:	54000122 	b.cs	404214 <_ZN4core5slice4sort7recurse17h42b981fe64c334b9E+0x290>  // b.hs, b.nlast
  4041f4:	f1002d3f 	cmp	x9, #0xb
  4041f8:	540001a2 	b.cs	40422c <_ZN4core5slice4sort7recurse17h42b981fe64c334b9E+0x2a8>  // b.hs, b.nlast
  4041fc:	52800029 	mov	w9, #0x1                   	// #1
  404200:	f100013f 	cmp	x9, #0x0
  404204:	1a9f17e8 	cset	w8, eq  // eq = none
  404208:	0a080388 	and	w8, w28, w8
  40420c:	36000328 	tbz	w8, #0, 404270 <_ZN4core5slice4sort7recurse17h42b981fe64c334b9E+0x2ec>
  404210:	14000050 	b	404350 <_ZN4core5slice4sort7recurse17h42b981fe64c334b9E+0x3cc>
  404214:	aa0803fa 	mov	x26, x8
  404218:	f100013f 	cmp	x9, #0x0
  40421c:	1a9f17e8 	cset	w8, eq  // eq = none
  404220:	0a080388 	and	w8, w28, w8
  404224:	36000268 	tbz	w8, #0, 404270 <_ZN4core5slice4sort7recurse17h42b981fe64c334b9E+0x2ec>
  404228:	1400004a 	b	404350 <_ZN4core5slice4sort7recurse17h42b981fe64c334b9E+0x3cc>
  40422c:	8b19130a 	add	x10, x24, x25, lsl #4
  404230:	d341ff28 	lsr	x8, x25, #1
  404234:	91002309 	add	x9, x24, #0x8
  404238:	d100214a 	sub	x10, x10, #0x8
  40423c:	a97fb14b 	ldp	x11, x12, [x10, #-8]
  404240:	d1000508 	sub	x8, x8, #0x1
  404244:	a97fb92d 	ldp	x13, x14, [x9, #-8]
  404248:	a93fb12b 	stp	x11, x12, [x9, #-8]
  40424c:	91004129 	add	x9, x9, #0x10
  404250:	a93fb94d 	stp	x13, x14, [x10, #-8]
  404254:	d100414a 	sub	x10, x10, #0x10
  404258:	b5ffff28 	cbnz	x8, 40423c <_ZN4core5slice4sort7recurse17h42b981fe64c334b9E+0x2b8>
  40425c:	aa3a03e8 	mvn	x8, x26
  404260:	8b08033a 	add	x26, x25, x8
  404264:	52800028 	mov	w8, #0x1                   	// #1
  404268:	0a080388 	and	w8, w28, w8
  40426c:	37000728 	tbnz	w8, #0, 404350 <_ZN4core5slice4sort7recurse17h42b981fe64c334b9E+0x3cc>
  404270:	b40007f5 	cbz	x21, 40436c <_ZN4core5slice4sort7recurse17h42b981fe64c334b9E+0x3e8>
  404274:	eb19035f 	cmp	x26, x25
  404278:	540024e2 	b.cs	404714 <_ZN4core5slice4sort7recurse17h42b981fe64c334b9E+0x790>  // b.hs, b.nlast
  40427c:	8b1a1309 	add	x9, x24, x26, lsl #4
  404280:	f94002a8 	ldr	x8, [x21]
  404284:	f940012a 	ldr	x10, [x9]
  404288:	eb0a011f 	cmp	x8, x10
  40428c:	540006c3 	b.cc	404364 <_ZN4core5slice4sort7recurse17h42b981fe64c334b9E+0x3e0>  // b.lo, b.ul, b.last
  404290:	a9402b0b 	ldp	x11, x10, [x24]
  404294:	aa1f03e8 	mov	x8, xzr
  404298:	a940312d 	ldp	x13, x12, [x9]
  40429c:	a9082beb 	stp	x11, x10, [sp, #128]
  4042a0:	a900330d 	stp	x13, x12, [x24]
  4042a4:	d100072c 	sub	x12, x25, #0x1
  4042a8:	a900292b 	stp	x11, x10, [x9]
  4042ac:	9100430a 	add	x10, x24, #0x10
  4042b0:	a9402f09 	ldp	x9, x11, [x24]
  4042b4:	eb0c03ff 	cmp	xzr, x12
  4042b8:	54000122 	b.cs	4042dc <_ZN4core5slice4sort7recurse17h42b981fe64c334b9E+0x358>  // b.hs, b.nlast
  4042bc:	8b08114d 	add	x13, x10, x8, lsl #4
  4042c0:	f84105ae 	ldr	x14, [x13], #16
  4042c4:	eb0e013f 	cmp	x9, x14
  4042c8:	540000a3 	b.cc	4042dc <_ZN4core5slice4sort7recurse17h42b981fe64c334b9E+0x358>  // b.lo, b.ul, b.last
  4042cc:	91000508 	add	x8, x8, #0x1
  4042d0:	eb08019f 	cmp	x12, x8
  4042d4:	54ffff61 	b.ne	4042c0 <_ZN4core5slice4sort7recurse17h42b981fe64c334b9E+0x33c>  // b.any
  4042d8:	aa0c03e8 	mov	x8, x12
  4042dc:	d37ced8d 	lsl	x13, x12, #4
  4042e0:	d100058c 	sub	x12, x12, #0x1
  4042e4:	eb0c011f 	cmp	x8, x12
  4042e8:	54000222 	b.cs	40432c <_ZN4core5slice4sort7recurse17h42b981fe64c334b9E+0x3a8>  // b.hs, b.nlast
  4042ec:	f86d6b0e 	ldr	x14, [x24, x13]
  4042f0:	d10041ad 	sub	x13, x13, #0x10
  4042f4:	eb0e013f 	cmp	x9, x14
  4042f8:	54ffff43 	b.cc	4042e0 <_ZN4core5slice4sort7recurse17h42b981fe64c334b9E+0x35c>  // b.lo, b.ul, b.last
  4042fc:	9100058d 	add	x13, x12, #0x1
  404300:	8b08114e 	add	x14, x10, x8, lsl #4
  404304:	91000508 	add	x8, x8, #0x1
  404308:	8b0d130d 	add	x13, x24, x13, lsl #4
  40430c:	a9403dd0 	ldp	x16, x15, [x14]
  404310:	a94045b2 	ldp	x18, x17, [x13]
  404314:	a9083ff0 	stp	x16, x15, [sp, #128]
  404318:	a90045d2 	stp	x18, x17, [x14]
  40431c:	a9003db0 	stp	x16, x15, [x13]
  404320:	eb0c011f 	cmp	x8, x12
  404324:	54fffcc3 	b.cc	4042bc <_ZN4core5slice4sort7recurse17h42b981fe64c334b9E+0x338>  // b.lo, b.ul, b.last
  404328:	17ffffed 	b	4042dc <_ZN4core5slice4sort7recurse17h42b981fe64c334b9E+0x358>
  40432c:	91000500 	add	x0, x8, #0x1
  404330:	a9002f09 	stp	x9, x11, [x24]
  404334:	eb00033a 	subs	x26, x25, x0
  404338:	54002123 	b.cc	40475c <_ZN4core5slice4sort7recurse17h42b981fe64c334b9E+0x7d8>  // b.lo, b.ul, b.last
  40433c:	8b001318 	add	x24, x24, x0, lsl #4
  404340:	aa1a03f9 	mov	x25, x26
  404344:	f100575f 	cmp	x26, #0x15
  404348:	54ffe642 	b.cs	404010 <_ZN4core5slice4sort7recurse17h42b981fe64c334b9E+0x8c>  // b.hs, b.nlast
  40434c:	17ffff1b 	b	403fb8 <_ZN4core5slice4sort7recurse17h42b981fe64c334b9E+0x34>
  404350:	aa1803e0 	mov	x0, x24
  404354:	aa1903e1 	mov	x1, x25
  404358:	97fffdb3 	bl	403a24 <_ZN4core5slice4sort22partial_insertion_sort17h4abe46d4340bd3b8E>
  40435c:	3607f8a0 	tbz	w0, #0, 404270 <_ZN4core5slice4sort7recurse17h42b981fe64c334b9E+0x2ec>
  404360:	17ffff1c 	b	403fd0 <_ZN4core5slice4sort7recurse17h42b981fe64c334b9E+0x4c>
  404364:	aa1803f6 	mov	x22, x24
  404368:	aa1903f7 	mov	x23, x25
  40436c:	eb17035f 	cmp	x26, x23
  404370:	54001de2 	b.cs	40472c <_ZN4core5slice4sort7recurse17h42b981fe64c334b9E+0x7a8>  // b.hs, b.nlast
  404374:	8b1a12c8 	add	x8, x22, x26, lsl #4
  404378:	aa1f03e0 	mov	x0, xzr
  40437c:	a94026ca 	ldp	x10, x9, [x22]
  404380:	d10006e1 	sub	x1, x23, #0x1
  404384:	a9402d0c 	ldp	x12, x11, [x8]
  404388:	a90827ea 	stp	x10, x9, [sp, #128]
  40438c:	a9002ecc 	stp	x12, x11, [x22]
  404390:	910042cc 	add	x12, x22, #0x10
  404394:	a900250a 	stp	x10, x9, [x8]
  404398:	52800208 	mov	w8, #0x10                  	// #16
  40439c:	a9402ac9 	ldp	x9, x10, [x22]
  4043a0:	f8686acb 	ldr	x11, [x22, x8]
  4043a4:	eb09017f 	cmp	x11, x9
  4043a8:	540000c2 	b.cs	4043c0 <_ZN4core5slice4sort7recurse17h42b981fe64c334b9E+0x43c>  // b.hs, b.nlast
  4043ac:	91000400 	add	x0, x0, #0x1
  4043b0:	91004108 	add	x8, x8, #0x10
  4043b4:	eb00003f 	cmp	x1, x0
  4043b8:	54ffff41 	b.ne	4043a0 <_ZN4core5slice4sort7recurse17h42b981fe64c334b9E+0x41c>  // b.any
  4043bc:	aa0103e0 	mov	x0, x1
  4043c0:	eb01001f 	cmp	x0, x1
  4043c4:	d37ceee8 	lsl	x8, x23, #4
  4043c8:	9a81300b 	csel	x11, x0, x1, cc  // cc = lo, ul, last
  4043cc:	d100410d 	sub	x13, x8, #0x10
  4043d0:	aa1703e8 	mov	x8, x23
  4043d4:	d1000508 	sub	x8, x8, #0x1
  4043d8:	eb08001f 	cmp	x0, x8
  4043dc:	540000c2 	b.cs	4043f4 <_ZN4core5slice4sort7recurse17h42b981fe64c334b9E+0x470>  // b.hs, b.nlast
  4043e0:	f86d6ace 	ldr	x14, [x22, x13]
  4043e4:	d10041ad 	sub	x13, x13, #0x10
  4043e8:	eb0901df 	cmp	x14, x9
  4043ec:	54ffff42 	b.cs	4043d4 <_ZN4core5slice4sort7recurse17h42b981fe64c334b9E+0x450>  // b.hs, b.nlast
  4043f0:	14000002 	b	4043f8 <_ZN4core5slice4sort7recurse17h42b981fe64c334b9E+0x474>
  4043f4:	aa0b03e8 	mov	x8, x11
  4043f8:	eb08001f 	cmp	x0, x8
  4043fc:	54001ba8 	b.hi	404770 <_ZN4core5slice4sort7recurse17h42b981fe64c334b9E+0x7ec>  // b.pmore
  404400:	eb01011f 	cmp	x8, x1
  404404:	54001c08 	b.hi	404784 <_ZN4core5slice4sort7recurse17h42b981fe64c334b9E+0x800>  // b.pmore
  404408:	8b00118b 	add	x11, x12, x0, lsl #4
  40440c:	aa1f03ed 	mov	x13, xzr
  404410:	aa1f03f0 	mov	x16, xzr
  404414:	aa1f03ee 	mov	x14, xzr
  404418:	aa1f03f1 	mov	x17, xzr
  40441c:	8b08118c 	add	x12, x12, x8, lsl #4
  404420:	52801012 	mov	w18, #0x80                  	// #128
  404424:	52801001 	mov	w1, #0x80                  	// #128
  404428:	aa0b03ef 	mov	x15, x11
  40442c:	1400000d 	b	404460 <_ZN4core5slice4sort7recurse17h42b981fe64c334b9E+0x4dc>
  404430:	8b071185 	add	x5, x12, x7, lsl #4
  404434:	91000631 	add	x17, x17, #0x1
  404438:	91000610 	add	x16, x16, #0x1
  40443c:	a90010a3 	stp	x3, x4, [x5]
  404440:	eb0e023f 	cmp	x17, x14
  404444:	9a9f0023 	csel	x3, x1, xzr, eq  // eq = none
  404448:	eb0d021f 	cmp	x16, x13
  40444c:	da9217e4 	csneg	x4, xzr, x18, ne  // ne = any
  404450:	f104045f 	cmp	x2, #0x101
  404454:	8b0311ef 	add	x15, x15, x3, lsl #4
  404458:	8b04118c 	add	x12, x12, x4, lsl #4
  40445c:	54000bc3 	b.cc	4045d4 <_ZN4core5slice4sort7recurse17h42b981fe64c334b9E+0x650>  // b.lo, b.ul, b.last
  404460:	cb0f0183 	sub	x3, x12, x15
  404464:	d344fc62 	lsr	x2, x3, #4
  404468:	f104045f 	cmp	x2, #0x101
  40446c:	540001c2 	b.cs	4044a4 <_ZN4core5slice4sort7recurse17h42b981fe64c334b9E+0x520>  // b.hs, b.nlast
  404470:	eb0e023f 	cmp	x17, x14
  404474:	d1020045 	sub	x5, x2, #0x80
  404478:	1a9f27e4 	cset	w4, cc  // cc = lo, ul, last
  40447c:	eb0d021f 	cmp	x16, x13
  404480:	1a9f2484 	csinc	w4, w4, wzr, cs  // cs = hs, nlast
  404484:	7100009f 	cmp	w4, #0x0
  404488:	9a8210a6 	csel	x6, x5, x2, ne  // ne = any
  40448c:	eb0e023f 	cmp	x17, x14
  404490:	9a9230b2 	csel	x18, x5, x18, cc  // cc = lo, ul, last
  404494:	9a863021 	csel	x1, x1, x6, cc  // cc = lo, ul, last
  404498:	37000064 	tbnz	w4, #0, 4044a4 <_ZN4core5slice4sort7recurse17h42b981fe64c334b9E+0x520>
  40449c:	d345fc61 	lsr	x1, x3, #5
  4044a0:	cb010052 	sub	x18, x2, x1
  4044a4:	eb0e023f 	cmp	x17, x14
  4044a8:	54000120 	b.eq	4044cc <_ZN4core5slice4sort7recurse17h42b981fe64c334b9E+0x548>  // b.none
  4044ac:	eb0d021f 	cmp	x16, x13
  4044b0:	54000380 	b.eq	404520 <_ZN4core5slice4sort7recurse17h42b981fe64c334b9E+0x59c>  // b.none
  4044b4:	cb1101c3 	sub	x3, x14, x17
  4044b8:	cb1001a4 	sub	x4, x13, x16
  4044bc:	eb04007f 	cmp	x3, x4
  4044c0:	9a843064 	csel	x4, x3, x4, cc  // cc = lo, ul, last
  4044c4:	b5000584 	cbnz	x4, 404574 <_ZN4core5slice4sort7recurse17h42b981fe64c334b9E+0x5f0>
  4044c8:	17ffffde 	b	404440 <_ZN4core5slice4sort7recurse17h42b981fe64c334b9E+0x4bc>
  4044cc:	b4000221 	cbz	x1, 404510 <_ZN4core5slice4sort7recurse17h42b981fe64c334b9E+0x58c>
  4044d0:	aa1f03e3 	mov	x3, xzr
  4044d4:	910003ee 	mov	x14, sp
  4044d8:	aa0f03f1 	mov	x17, x15
  4044dc:	f8410625 	ldr	x5, [x17], #16
  4044e0:	aa0e03e4 	mov	x4, x14
  4044e4:	91000466 	add	x6, x3, #0x1
  4044e8:	eb0900bf 	cmp	x5, x9
  4044ec:	38001483 	strb	w3, [x4], #1
  4044f0:	9a8431ce 	csel	x14, x14, x4, cc  // cc = lo, ul, last
  4044f4:	aa0603e3 	mov	x3, x6
  4044f8:	eb06003f 	cmp	x1, x6
  4044fc:	54ffff01 	b.ne	4044dc <_ZN4core5slice4sort7recurse17h42b981fe64c334b9E+0x558>  // b.any
  404500:	910003f1 	mov	x17, sp
  404504:	eb0d021f 	cmp	x16, x13
  404508:	54fffd61 	b.ne	4044b4 <_ZN4core5slice4sort7recurse17h42b981fe64c334b9E+0x530>  // b.any
  40450c:	14000005 	b	404520 <_ZN4core5slice4sort7recurse17h42b981fe64c334b9E+0x59c>
  404510:	910003ee 	mov	x14, sp
  404514:	910003f1 	mov	x17, sp
  404518:	eb0d021f 	cmp	x16, x13
  40451c:	54fffcc1 	b.ne	4044b4 <_ZN4core5slice4sort7recurse17h42b981fe64c334b9E+0x530>  // b.any
  404520:	b40001d2 	cbz	x18, 404558 <_ZN4core5slice4sort7recurse17h42b981fe64c334b9E+0x5d4>
  404524:	aa1f03e3 	mov	x3, xzr
  404528:	d1004190 	sub	x16, x12, #0x10
  40452c:	910203ed 	add	x13, sp, #0x80
  404530:	f85f0605 	ldr	x5, [x16], #-16
  404534:	aa0d03e4 	mov	x4, x13
  404538:	91000466 	add	x6, x3, #0x1
  40453c:	eb0900bf 	cmp	x5, x9
  404540:	38001483 	strb	w3, [x4], #1
  404544:	9a8421ad 	csel	x13, x13, x4, cs  // cs = hs, nlast
  404548:	aa0603e3 	mov	x3, x6
  40454c:	eb06025f 	cmp	x18, x6
  404550:	54ffff01 	b.ne	404530 <_ZN4core5slice4sort7recurse17h42b981fe64c334b9E+0x5ac>  // b.any
  404554:	14000002 	b	40455c <_ZN4core5slice4sort7recurse17h42b981fe64c334b9E+0x5d8>
  404558:	910203ed 	add	x13, sp, #0x80
  40455c:	910203f0 	add	x16, sp, #0x80
  404560:	cb1101c3 	sub	x3, x14, x17
  404564:	cb1001a4 	sub	x4, x13, x16
  404568:	eb04007f 	cmp	x3, x4
  40456c:	9a843064 	csel	x4, x3, x4, cc  // cc = lo, ul, last
  404570:	b4fff684 	cbz	x4, 404440 <_ZN4core5slice4sort7recurse17h42b981fe64c334b9E+0x4bc>
  404574:	39400205 	ldrb	w5, [x16]
  404578:	39400223 	ldrb	w3, [x17]
  40457c:	aa2503e7 	mvn	x7, x5
  404580:	8b0311f8 	add	x24, x15, x3, lsl #4
  404584:	8b071186 	add	x6, x12, x7, lsl #4
  404588:	a94064da 	ldp	x26, x25, [x6]
  40458c:	f1000486 	subs	x6, x4, #0x1
  404590:	a9401303 	ldp	x3, x4, [x24]
  404594:	a900671a 	stp	x26, x25, [x24]
  404598:	54fff4c0 	b.eq	404430 <_ZN4core5slice4sort7recurse17h42b981fe64c334b9E+0x4ac>  // b.none
  40459c:	38401e27 	ldrb	w7, [x17, #1]!
  4045a0:	aa2503e5 	mvn	x5, x5
  4045a4:	f10004c6 	subs	x6, x6, #0x1
  4045a8:	8b0711f8 	add	x24, x15, x7, lsl #4
  4045ac:	8b051185 	add	x5, x12, x5, lsl #4
  4045b0:	a9406707 	ldp	x7, x25, [x24]
  4045b4:	a90064a7 	stp	x7, x25, [x5]
  4045b8:	38401e05 	ldrb	w5, [x16, #1]!
  4045bc:	aa2503e7 	mvn	x7, x5
  4045c0:	8b071199 	add	x25, x12, x7, lsl #4
  4045c4:	a940673a 	ldp	x26, x25, [x25]
  4045c8:	a900671a 	stp	x26, x25, [x24]
  4045cc:	54fffe81 	b.ne	40459c <_ZN4core5slice4sort7recurse17h42b981fe64c334b9E+0x618>  // b.any
  4045d0:	17ffff98 	b	404430 <_ZN4core5slice4sort7recurse17h42b981fe64c334b9E+0x4ac>
  4045d4:	aa0c03f2 	mov	x18, x12
  4045d8:	eb0e023f 	cmp	x17, x14
  4045dc:	540001a2 	b.cs	404610 <_ZN4core5slice4sort7recurse17h42b981fe64c334b9E+0x68c>  // b.hs, b.nlast
  4045e0:	385ffdcc 	ldrb	w12, [x14, #-1]!
  4045e4:	a9ff0a41 	ldp	x1, x2, [x18, #-16]!
  4045e8:	eb0e023f 	cmp	x17, x14
  4045ec:	8b0c11ec 	add	x12, x15, x12, lsl #4
  4045f0:	a940418d 	ldp	x13, x16, [x12]
  4045f4:	a9000981 	stp	x1, x2, [x12]
  4045f8:	a91043ed 	stp	x13, x16, [sp, #256]
  4045fc:	aa1003ed 	mov	x13, x16
  404600:	f94083f0 	ldr	x16, [sp, #256]
  404604:	a9003650 	stp	x16, x13, [x18]
  404608:	54fffec3 	b.cc	4045e0 <_ZN4core5slice4sort7recurse17h42b981fe64c334b9E+0x65c>  // b.lo, b.ul, b.last
  40460c:	1400000e 	b	404644 <_ZN4core5slice4sort7recurse17h42b981fe64c334b9E+0x6c0>
  404610:	aa0f03f2 	mov	x18, x15
  404614:	eb0d021f 	cmp	x16, x13
  404618:	54000162 	b.cs	404644 <_ZN4core5slice4sort7recurse17h42b981fe64c334b9E+0x6c0>  // b.hs, b.nlast
  40461c:	385ffdae 	ldrb	w14, [x13, #-1]!
  404620:	a9403e51 	ldp	x17, x15, [x18]
  404624:	eb0d021f 	cmp	x16, x13
  404628:	aa2e03ee 	mvn	x14, x14
  40462c:	8b0e118e 	add	x14, x12, x14, lsl #4
  404630:	a9103ff1 	stp	x17, x15, [sp, #256]
  404634:	a94005c2 	ldp	x2, x1, [x14]
  404638:	a8810642 	stp	x2, x1, [x18], #16
  40463c:	a9003dd1 	stp	x17, x15, [x14]
  404640:	54fffee3 	b.cc	40461c <_ZN4core5slice4sort7recurse17h42b981fe64c334b9E+0x698>  // b.lo, b.ul, b.last
  404644:	cb0b024b 	sub	x11, x18, x11
  404648:	a9002ac9 	stp	x9, x10, [x22]
  40464c:	8b4b101a 	add	x26, x0, x11, lsr #4
  404650:	eb1a02eb 	subs	x11, x23, x26
  404654:	54000789 	b.ls	404744 <_ZN4core5slice4sort7recurse17h42b981fe64c334b9E+0x7c0>  // b.plast
  404658:	eb08001f 	cmp	x0, x8
  40465c:	8b1a12d8 	add	x24, x22, x26, lsl #4
  404660:	a94022c9 	ldp	x9, x8, [x22]
  404664:	1a9f37fc 	cset	w28, cs  // cs = hs, nlast
  404668:	eb0b035f 	cmp	x26, x11
  40466c:	a940330a 	ldp	x10, x12, [x24]
  404670:	d1000579 	sub	x25, x11, #0x1
  404674:	a90823e9 	stp	x9, x8, [sp, #128]
  404678:	9a8b3348 	csel	x8, x26, x11, cc  // cc = lo, ul, last
  40467c:	eb570d1f 	cmp	x8, x23, lsr #3
  404680:	aa0903e8 	mov	x8, x9
  404684:	f94047e9 	ldr	x9, [sp, #136]
  404688:	1a9f37fb 	cset	w27, cs  // cs = hs, nlast
  40468c:	91004317 	add	x23, x24, #0x10
  404690:	eb19035f 	cmp	x26, x25
  404694:	a90032ca 	stp	x10, x12, [x22]
  404698:	a9002708 	stp	x8, x9, [x24]
  40469c:	540001e2 	b.cs	4046d8 <_ZN4core5slice4sort7recurse17h42b981fe64c334b9E+0x754>  // b.hs, b.nlast
  4046a0:	aa1603e0 	mov	x0, x22
  4046a4:	aa1a03e1 	mov	x1, x26
  4046a8:	aa1403e2 	mov	x2, x20
  4046ac:	aa1503e3 	mov	x3, x21
  4046b0:	2a1303e4 	mov	w4, w19
  4046b4:	97fffe34 	bl	403f84 <_ZN4core5slice4sort7recurse17h42b981fe64c334b9E>
  4046b8:	aa1803f5 	mov	x21, x24
  4046bc:	aa1903fa 	mov	x26, x25
  4046c0:	aa1703f6 	mov	x22, x23
  4046c4:	aa1a03f7 	mov	x23, x26
  4046c8:	aa1603f8 	mov	x24, x22
  4046cc:	f100573f 	cmp	x25, #0x15
  4046d0:	54ffc9a2 	b.cs	404004 <_ZN4core5slice4sort7recurse17h42b981fe64c334b9E+0x80>  // b.hs, b.nlast
  4046d4:	17fffe39 	b	403fb8 <_ZN4core5slice4sort7recurse17h42b981fe64c334b9E+0x34>
  4046d8:	aa1703e0 	mov	x0, x23
  4046dc:	aa1903e1 	mov	x1, x25
  4046e0:	aa1403e2 	mov	x2, x20
  4046e4:	aa1803e3 	mov	x3, x24
  4046e8:	2a1303e4 	mov	w4, w19
  4046ec:	97fffe26 	bl	403f84 <_ZN4core5slice4sort7recurse17h42b981fe64c334b9E>
  4046f0:	aa1a03f7 	mov	x23, x26
  4046f4:	aa1603f8 	mov	x24, x22
  4046f8:	f100575f 	cmp	x26, #0x15
  4046fc:	54ffc842 	b.cs	404004 <_ZN4core5slice4sort7recurse17h42b981fe64c334b9E+0x80>  // b.hs, b.nlast
  404700:	17fffe2e 	b	403fb8 <_ZN4core5slice4sort7recurse17h42b981fe64c334b9E+0x34>
  404704:	aa1803e0 	mov	x0, x24
  404708:	aa1903e1 	mov	x1, x25
  40470c:	97fffc03 	bl	403718 <_ZN4core5slice4sort8heapsort17h31adcd998f998861E>
  404710:	17fffe30 	b	403fd0 <_ZN4core5slice4sort7recurse17h42b981fe64c334b9E+0x4c>
  404714:	d503201f 	nop
  404718:	1014f942 	adr	x2, 42e640 <etext+0x640>
  40471c:	aa1a03e0 	mov	x0, x26
  404720:	aa1903e1 	mov	x1, x25
  404724:	94008d02 	bl	427b2c <_ZN4core9panicking18panic_bounds_check17h7a5004348664dd7fE>
  404728:	d4200020 	brk	#0x1
  40472c:	d503201f 	nop
  404730:	1014fc42 	adr	x2, 42e6b8 <etext+0x6b8>
  404734:	aa1a03e0 	mov	x0, x26
  404738:	aa1703e1 	mov	x1, x23
  40473c:	94008cfc 	bl	427b2c <_ZN4core9panicking18panic_bounds_check17h7a5004348664dd7fE>
  404740:	d4200020 	brk	#0x1
  404744:	d503201f 	nop
  404748:	1014fd02 	adr	x2, 42e6e8 <etext+0x6e8>
  40474c:	aa1a03e0 	mov	x0, x26
  404750:	aa1703e1 	mov	x1, x23
  404754:	94008cf6 	bl	427b2c <_ZN4core9panicking18panic_bounds_check17h7a5004348664dd7fE>
  404758:	d4200020 	brk	#0x1
  40475c:	d503201f 	nop
  404760:	1014f7c2 	adr	x2, 42e658 <etext+0x658>
  404764:	aa1903e1 	mov	x1, x25
  404768:	94008cde 	bl	427ae0 <_ZN4core5slice5index26slice_start_index_len_fail17h36fca5bfd6ef1204E>
  40476c:	d4200020 	brk	#0x1
  404770:	d503201f 	nop
  404774:	1014fae2 	adr	x2, 42e6d0 <etext+0x6d0>
  404778:	aa0803e1 	mov	x1, x8
  40477c:	940090fb 	bl	428b68 <_ZN4core5slice5index22slice_index_order_fail17hb50a06e91217f453E>
  404780:	d4200020 	brk	#0x1
  404784:	d503201f 	nop
  404788:	1014fa42 	adr	x2, 42e6d0 <etext+0x6d0>
  40478c:	aa0803e0 	mov	x0, x8
  404790:	94008e2e 	bl	428048 <_ZN4core5slice5index24slice_end_index_len_fail17h34d84eb9d2f473b0E>
  404794:	d4200020 	brk	#0x1

0000000000404798 <main>:
  404798:	a9ba7bfd 	stp	x29, x30, [sp, #-96]!
  40479c:	d1400fe9 	sub	x9, sp, #0x3, lsl #12
  4047a0:	a9016ffc 	stp	x28, x27, [sp, #16]
  4047a4:	d13e8129 	sub	x9, x9, #0xfa0
  4047a8:	a90267fa 	stp	x26, x25, [sp, #32]
  4047ac:	a9035ff8 	stp	x24, x23, [sp, #48]
  4047b0:	910003fd 	mov	x29, sp
  4047b4:	a90457f6 	stp	x22, x21, [sp, #64]
  4047b8:	a9054ff4 	stp	x20, x19, [sp, #80]
  4047bc:	9274cd3f 	and	sp, x9, #0xfffffffffffff000
  4047c0:	52800028 	mov	w8, #0x1                   	// #1
  4047c4:	d503201f 	nop
  4047c8:	1014fb09 	adr	x9, 42e728 <etext+0x728>
  4047cc:	aa0003f3 	mov	x19, x0
  4047d0:	91400be0 	add	x0, sp, #0x2, lsl #12
  4047d4:	91400be2 	add	x2, sp, #0x2, lsl #12
  4047d8:	f91343e8 	str	x8, [sp, #9856]
  4047dc:	d503201f 	nop
  4047e0:	104eb748 	adr	x8, 4a1ec8 <_ZN2of10MY_FDT_PTR17h6e65d78abd280111E.0>
  4047e4:	f9133fe9 	str	x9, [sp, #9848]
  4047e8:	91400be9 	add	x9, sp, #0x2, lsl #12
  4047ec:	d503201f 	nop
  4047f0:	1017f256 	adr	x22, 434638 <_ZN4core7unicode12unicode_data15grapheme_extend7OFFSETS17h7af8ccc2b809066cE+0x9fc>
  4047f4:	913fe129 	add	x9, x9, #0xff8
  4047f8:	f917bbe8 	str	x8, [sp, #12144]
  4047fc:	91400be8 	add	x8, sp, #0x2, lsl #12
  404800:	913da108 	add	x8, x8, #0xf68
  404804:	d503201f 	nop
  404808:	10171bc1 	adr	x1, 432b80 <etext+0x4b80>
  40480c:	913e8000 	add	x0, x0, #0xfa0
  404810:	9119e042 	add	x2, x2, #0x678
  404814:	f9134fff 	str	xzr, [sp, #9880]
  404818:	f917b7f6 	str	x22, [sp, #12136]
  40481c:	f91347e9 	str	x9, [sp, #9864]
  404820:	f9134bff 	str	xzr, [sp, #9872]
  404824:	f917d3e8 	str	x8, [sp, #12192]
  404828:	b92fabff 	str	wzr, [sp, #12200]
  40482c:	94008faf 	bl	4286e8 <_ZN4core3fmt5write17had491e6ceb88f3c5E>
  404830:	340005e0 	cbz	w0, 4048ec <main+0x154>
  404834:	b96fabe8 	ldr	w8, [sp, #12200]
  404838:	35000428 	cbnz	w8, 4048bc <main+0x124>
  40483c:	b00004e8 	adrp	x8, 4a1000 <_ZN7axalloc16GLOBAL_ALLOCATOR17h04b3423754977f4bE+0x23000>
  404840:	f9477d08 	ldr	x8, [x8, #3832]
  404844:	f100091f 	cmp	x8, #0x2
  404848:	1a9f07e8 	cset	w8, ne  // ne = any
  40484c:	5a9f9108 	csinv	w8, w8, wzr, ls  // ls = plast
  404850:	3100051f 	cmn	w8, #0x1
  404854:	54000060 	b.eq	404860 <main+0xc8>  // b.none
  404858:	12001d08 	and	w8, w8, #0xff
  40485c:	350002e8 	cbnz	w8, 4048b8 <main+0x120>
  404860:	f0000148 	adrp	x8, 42f000 <etext+0x1000>
  404864:	912ed108 	add	x8, x8, #0xbb4
  404868:	d503201f 	nop
  40486c:	10118f09 	adr	x9, 427a4c <_ZN53_$LT$axerrno..AxError$u20$as$u20$core..fmt..Debug$GT$3fmt17h1b7d2a4233ef4e65E.762>
  404870:	91400be0 	add	x0, sp, #0x2, lsl #12
  404874:	913703ea 	add	x10, sp, #0xdc0
  404878:	f906e3e8 	str	x8, [sp, #3520]
  40487c:	52800048 	mov	w8, #0x2                   	// #2
  404880:	f906e7e9 	str	x9, [sp, #3528]
  404884:	d503201f 	nop
  404888:	10171a09 	adr	x9, 432bc8 <etext+0x4bc8>
  40488c:	d503201f 	nop
  404890:	10171ac2 	adr	x2, 432be8 <etext+0x4be8>
  404894:	f914afe8 	str	x8, [sp, #10584]
  404898:	52800028 	mov	w8, #0x1                   	// #1
  40489c:	91254000 	add	x0, x0, #0x950
  4048a0:	52800041 	mov	w1, #0x2                   	// #2
  4048a4:	f914abe9 	str	x9, [sp, #10576]
  4048a8:	f914bbff 	str	xzr, [sp, #10608]
  4048ac:	f914b3ea 	str	x10, [sp, #10592]
  4048b0:	f914b7e8 	str	x8, [sp, #10600]
  4048b4:	9400a218 	bl	42d114 <_ZN3log17__private_api_log17h7f29abf710eff511E>
  4048b8:	52800108 	mov	w8, #0x8                   	// #8
  4048bc:	d503201f 	nop
  4048c0:	1017fb80 	adr	x0, 434830 <_ZN3log6logger3NOP17h11948bda88406911E+0x1c8>
  4048c4:	d503201f 	nop
  4048c8:	101722c3 	adr	x3, 432d20 <etext+0x4d20>
  4048cc:	d503201f 	nop
  4048d0:	10172384 	adr	x4, 432d40 <etext+0x4d40>
  4048d4:	b92953e8 	str	w8, [sp, #10576]
  4048d8:	91400be2 	add	x2, sp, #0x2, lsl #12
  4048dc:	91254042 	add	x2, x2, #0x950
  4048e0:	52800561 	mov	w1, #0x2b                  	// #43
  4048e4:	9400926b 	bl	429290 <_ZN4core6result13unwrap_failed17h4ccb29953da6c6f0E>
  4048e8:	d4200020 	brk	#0x1
  4048ec:	d503201f 	nop
  4048f0:	1019b888 	adr	x8, 438000 <_ZN9arceos_hv10NIMBOS_DTB17habe9c3a520f0d333E>
  4048f4:	aa0803ec 	mov	x12, x8
  4048f8:	b00004f7 	adrp	x23, 4a1000 <_ZN7axalloc16GLOBAL_ALLOCATOR17h04b3423754977f4bE+0x23000>
  4048fc:	39400509 	ldrb	w9, [x8, #1]
  404900:	3940010a 	ldrb	w10, [x8]
  404904:	3940090d 	ldrb	w13, [x8, #2]
  404908:	39400d0b 	ldrb	w11, [x8, #3]
  40490c:	38404d8f 	ldrb	w15, [x12, #4]!
  404910:	aa092149 	orr	x9, x10, x9, lsl #8
  404914:	39400d8a 	ldrb	w10, [x12, #3]
  404918:	3940098c 	ldrb	w12, [x12, #2]
  40491c:	d370bdad 	lsl	x13, x13, #16
  404920:	3940150e 	ldrb	w14, [x8, #5]
  404924:	aa0b61ab 	orr	x11, x13, x11, lsl #24
  404928:	3940250d 	ldrb	w13, [x8, #9]
  40492c:	aa090169 	orr	x9, x11, x9
  404930:	3940350b 	ldrb	w11, [x8, #13]
  404934:	53103d8c 	lsl	w12, w12, #16
  404938:	38408d10 	ldrb	w16, [x8, #8]!
  40493c:	2a0e21ee 	orr	w14, w15, w14, lsl #8
  404940:	39400d0f 	ldrb	w15, [x8, #3]
  404944:	39400911 	ldrb	w17, [x8, #2]
  404948:	2a0a618a 	orr	w10, w12, w10, lsl #24
  40494c:	38404d12 	ldrb	w18, [x8, #4]!
  404950:	3940090c 	ldrb	w12, [x8, #2]
  404954:	2a0e014a 	orr	w10, w10, w14
  404958:	39400d08 	ldrb	w8, [x8, #3]
  40495c:	d370be2e 	lsl	x14, x17, #16
  404960:	2a0b224b 	orr	w11, w18, w11, lsl #8
  404964:	aa0d220d 	orr	x13, x16, x13, lsl #8
  404968:	53103d8c 	lsl	w12, w12, #16
  40496c:	aa0f61ce 	orr	x14, x14, x15, lsl #24
  404970:	2a086188 	orr	w8, w12, w8, lsl #24
  404974:	aa0a8129 	orr	x9, x9, x10, lsl #32
  404978:	2a0b0108 	orr	w8, w8, w11
  40497c:	aa0d01ca 	orr	x10, x14, x13
  404980:	52a5000b 	mov	w11, #0x28000000            	// #671088640
  404984:	aa088148 	orr	x8, x10, x8, lsl #32
  404988:	f9133fe9 	str	x9, [sp, #9848]
  40498c:	b9268beb 	str	w11, [sp, #9864]
  404990:	f91343e8 	str	x8, [sp, #9856]
  404994:	f9477ee8 	ldr	x8, [x23, #3832]
  404998:	f100111f 	cmp	x8, #0x4
  40499c:	1a9f07e8 	cset	w8, ne  // ne = any
  4049a0:	5a9f9108 	csinv	w8, w8, wzr, ls  // ls = plast
  4049a4:	3100051f 	cmn	w8, #0x1
  4049a8:	54000060 	b.eq	4049b4 <main+0x21c>  // b.none
  4049ac:	12001d08 	and	w8, w8, #0xff
  4049b0:	35000668 	cbnz	w8, 404a7c <main+0x2e4>
  4049b4:	91400be8 	add	x8, sp, #0x2, lsl #12
  4049b8:	d503201f 	nop
  4049bc:	10ff2d49 	adr	x9, 402f64 <_ZN4core5array69_$LT$impl$u20$core..fmt..Debug$u20$for$u20$$u5b$T$u3b$$u20$N$u5d$$GT$3fmt17h9eb4ecf3e91004d8E>
  4049c0:	9119e108 	add	x8, x8, #0x678
  4049c4:	b00004ea 	adrp	x10, 4a1000 <_ZN7axalloc16GLOBAL_ALLOCATOR17h04b3423754977f4bE+0x23000>
  4049c8:	913ba14a 	add	x10, x10, #0xee8
  4049cc:	5280008c 	mov	w12, #0x4                   	// #4
  4049d0:	f000018b 	adrp	x11, 437000 <_ZN3log6LOGGER17hab630ad04d1f5aabE.1>
  4049d4:	f906e3e8 	str	x8, [sp, #3520]
  4049d8:	d503201f 	nop
  4049dc:	101724ae 	adr	x14, 432e70 <etext+0x4e70>
  4049e0:	f906e7e9 	str	x9, [sp, #3528]
  4049e4:	c8dffd49 	ldar	x9, [x10]
  4049e8:	f914c3ec 	str	x12, [sp, #10624]
  4049ec:	913703ec 	add	x12, sp, #0xdc0
  4049f0:	5280002f 	mov	w15, #0x1                   	// #1
  4049f4:	f940016b 	ldr	x11, [x11]
  4049f8:	d503201f 	nop
  4049fc:	1017e1e8 	adr	x8, 434638 <_ZN4core7unicode12unicode_data15grapheme_extend7OFFSETS17h7af8ccc2b809066cE+0x9fc>
  404a00:	d503201f 	nop
  404a04:	1014e7ed 	adr	x13, 42e700 <etext+0x700>
  404a08:	f914dbec 	str	x12, [sp, #10672]
  404a0c:	5280026c 	mov	w12, #0x13                  	// #19
  404a10:	f914d3ee 	str	x14, [sp, #10656]
  404a14:	f914d7ef 	str	x15, [sp, #10664]
  404a18:	d503201f 	nop
  404a1c:	3014e76e 	adr	x14, 42e709 <etext+0x709>
  404a20:	f914dfef 	str	x15, [sp, #10680]
  404a24:	f914bfec 	str	x12, [sp, #10616]
  404a28:	d280002c 	mov	x12, #0x1                   	// #1
  404a2c:	5280012f 	mov	w15, #0x9                   	// #9
  404a30:	f2c0054c 	movk	x12, #0x2a, lsl #32
  404a34:	f100093f 	cmp	x9, #0x2
  404a38:	d503201f 	nop
  404a3c:	1017e16a 	adr	x10, 434668 <_ZN3log6logger3NOP17h11948bda88406911E>
  404a40:	9a880168 	csel	x8, x11, x8, eq  // eq = none
  404a44:	f914c7ed 	str	x13, [sp, #10632]
  404a48:	91400be1 	add	x1, sp, #0x2, lsl #12
  404a4c:	f914bbee 	str	x14, [sp, #10608]
  404a50:	9a8a02c0 	csel	x0, x22, x10, eq  // eq = none
  404a54:	f914e3ff 	str	xzr, [sp, #10688]
  404a58:	91254021 	add	x1, x1, #0x950
  404a5c:	f914cbef 	str	x15, [sp, #10640]
  404a60:	f914cfec 	str	x12, [sp, #10648]
  404a64:	f9401108 	ldr	x8, [x8, #32]
  404a68:	f914abff 	str	xzr, [sp, #10576]
  404a6c:	f914afed 	str	x13, [sp, #10584]
  404a70:	f914b3ef 	str	x15, [sp, #10592]
  404a74:	f914b7ff 	str	xzr, [sp, #10600]
  404a78:	d63f0100 	blr	x8
  404a7c:	52840008 	mov	w8, #0x2000                	// #8192
  404a80:	91400bf8 	add	x24, sp, #0x2, lsl #12
  404a84:	91196318 	add	x24, x24, #0x658
  404a88:	d503201f 	nop
  404a8c:	1014bf74 	adr	x20, 42e278 <etext+0x278>
  404a90:	d503201f 	nop
  404a94:	3014bfd5 	adr	x21, 42e28d <etext+0x28d>
  404a98:	f9179be8 	str	x8, [sp, #12080]
  404a9c:	f9477ee8 	ldr	x8, [x23, #3832]
  404aa0:	f100111f 	cmp	x8, #0x4
  404aa4:	1a9f07e8 	cset	w8, ne  // ne = any
  404aa8:	5a9f9108 	csinv	w8, w8, wzr, ls  // ls = plast
  404aac:	34000088 	cbz	w8, 404abc <main+0x324>
  404ab0:	12001d08 	and	w8, w8, #0xff
  404ab4:	7103fd1f 	cmp	w8, #0xff
  404ab8:	540007e1 	b.ne	404bb4 <main+0x41c>  // b.any
  404abc:	d503201f 	nop
  404ac0:	101256a9 	adr	x9, 429594 <_ZN4core3fmt3num53_$LT$impl$u20$core..fmt..LowerHex$u20$for$u20$i64$GT$3fmt17hb75d8fb858ad3968E>
  404ac4:	91400be8 	add	x8, sp, #0x2, lsl #12
  404ac8:	5280004a 	mov	w10, #0x2                   	// #2
  404acc:	913cc108 	add	x8, x8, #0xf30
  404ad0:	d503201f 	nop
  404ad4:	1014bcad 	adr	x13, 42e268 <etext+0x268>
  404ad8:	f917d7e9 	str	x9, [sp, #12200]
  404adc:	52800069 	mov	w9, #0x3                   	// #3
  404ae0:	f906e3ea 	str	x10, [sp, #3520]
  404ae4:	f917d3e8 	str	x8, [sp, #12192]
  404ae8:	d2800408 	mov	x8, #0x20                  	// #32
  404aec:	f2c00088 	movk	x8, #0x4, lsl #32
  404af0:	f906ebea 	str	x10, [sp, #3536]
  404af4:	3937c3e9 	strb	w9, [sp, #3568]
  404af8:	91400be9 	add	x9, sp, #0x2, lsl #12
  404afc:	b00004ea 	adrp	x10, 4a1000 <_ZN7axalloc16GLOBAL_ALLOCATOR17h04b3423754977f4bE+0x23000>
  404b00:	913ba14a 	add	x10, x10, #0xee8
  404b04:	913e8129 	add	x9, x9, #0xfa0
  404b08:	f906f3ff 	str	xzr, [sp, #3552]
  404b0c:	f906f7e8 	str	x8, [sp, #3560]
  404b10:	52800028 	mov	w8, #0x1                   	// #1
  404b14:	c8dffd4a 	ldar	x10, [x10]
  404b18:	5280052e 	mov	w14, #0x29                  	// #41
  404b1c:	f9136fe9 	str	x9, [sp, #9944]
  404b20:	f0000189 	adrp	x9, 437000 <_ZN3log6LOGGER17hab630ad04d1f5aabE.1>
  404b24:	f91367ed 	str	x13, [sp, #9928]
  404b28:	913703ed 	add	x13, sp, #0xdc0
  404b2c:	f9136be8 	str	x8, [sp, #9936]
  404b30:	d503201f 	nop
  404b34:	1017d82b 	adr	x11, 434638 <_ZN4core7unicode12unicode_data15grapheme_extend7OFFSETS17h7af8ccc2b809066cE+0x9fc>
  404b38:	f91373e8 	str	x8, [sp, #9952]
  404b3c:	f9137be8 	str	x8, [sp, #9968]
  404b40:	f9400128 	ldr	x8, [x9]
  404b44:	f91353ee 	str	x14, [sp, #9888]
  404b48:	d280002e 	mov	x14, #0x1                   	// #1
  404b4c:	f91377ed 	str	x13, [sp, #9960]
  404b50:	5280008d 	mov	w13, #0x4                   	// #4
  404b54:	528002a9 	mov	w9, #0x15                  	// #21
  404b58:	f2c008ee 	movk	x14, #0x47, lsl #32
  404b5c:	f100095f 	cmp	x10, #0x2
  404b60:	d503201f 	nop
  404b64:	1017d82c 	adr	x12, 434668 <_ZN3log6logger3NOP17h11948bda88406911E>
  404b68:	9a8b0108 	csel	x8, x8, x11, eq  // eq = none
  404b6c:	f9134ff5 	str	x21, [sp, #9880]
  404b70:	91400be1 	add	x1, sp, #0x2, lsl #12
  404b74:	f91357ed 	str	x13, [sp, #9896]
  404b78:	9a8c02c0 	csel	x0, x22, x12, eq  // eq = none
  404b7c:	f9135bf4 	str	x20, [sp, #9904]
  404b80:	9119e021 	add	x1, x1, #0x678
  404b84:	f9135fe9 	str	x9, [sp, #9912]
  404b88:	f91363ee 	str	x14, [sp, #9920]
  404b8c:	f9401108 	ldr	x8, [x8, #32]
  404b90:	f9133fff 	str	xzr, [sp, #9848]
  404b94:	f91343f4 	str	x20, [sp, #9856]
  404b98:	f91347e9 	str	x9, [sp, #9864]
  404b9c:	f9134bff 	str	xzr, [sp, #9872]
  404ba0:	d63f0100 	blr	x8
  404ba4:	f9579be8 	ldr	x8, [sp, #12080]
  404ba8:	913ffd08 	add	x8, x8, #0xfff
  404bac:	d34cfd01 	lsr	x1, x8, #12
  404bb0:	14000002 	b	404bb8 <main+0x420>
  404bb4:	52800041 	mov	w1, #0x2                   	// #2
  404bb8:	91400be0 	add	x0, sp, #0x2, lsl #12
  404bbc:	d53b4239 	mrs	x25, daif
  404bc0:	d50342df 	msr	daifset, #0x2
  404bc4:	9119e000 	add	x0, x0, #0x678
  404bc8:	94000f2a 	bl	408870 <_ZN92_$LT$allocator..bitmap..BitmapPageAllocator$LT$_$GT$$u20$as$u20$allocator..PageAllocator$GT$11alloc_pages17hc2599d2b3a79021dE>
  404bcc:	d51b4239 	msr	daif, x25
  404bd0:	39408308 	ldrb	w8, [x24, #32]
  404bd4:	35000b48 	cbnz	w8, 404d3c <main+0x5a4>
  404bd8:	f95343e8 	ldr	x8, [sp, #9856]
  404bdc:	f917b7e8 	str	x8, [sp, #12136]
  404be0:	f9477ee8 	ldr	x8, [x23, #3832]
  404be4:	f100111f 	cmp	x8, #0x4
  404be8:	1a9f07e8 	cset	w8, ne  // ne = any
  404bec:	5a9f9108 	csinv	w8, w8, wzr, ls  // ls = plast
  404bf0:	34000088 	cbz	w8, 404c00 <main+0x468>
  404bf4:	12001d08 	and	w8, w8, #0xff
  404bf8:	7103fd1f 	cmp	w8, #0xff
  404bfc:	54000761 	b.ne	404ce8 <main+0x550>  // b.any
  404c00:	91400be8 	add	x8, sp, #0x2, lsl #12
  404c04:	d503201f 	nop
  404c08:	10124c69 	adr	x9, 429594 <_ZN4core3fmt3num53_$LT$impl$u20$core..fmt..LowerHex$u20$for$u20$i64$GT$3fmt17hb75d8fb858ad3968E>
  404c0c:	913da108 	add	x8, x8, #0xf68
  404c10:	5280004a 	mov	w10, #0x2                   	// #2
  404c14:	f906f3ff 	str	xzr, [sp, #3552]
  404c18:	d503201f 	nop
  404c1c:	1014b56c 	adr	x12, 42e2c8 <etext+0x2c8>
  404c20:	f917d3e8 	str	x8, [sp, #12192]
  404c24:	d2800408 	mov	x8, #0x20                  	// #32
  404c28:	f2c00088 	movk	x8, #0x4, lsl #32
  404c2c:	f917d7e9 	str	x9, [sp, #12200]
  404c30:	52800069 	mov	w9, #0x3                   	// #3
  404c34:	f906e3ea 	str	x10, [sp, #3520]
  404c38:	f906ebea 	str	x10, [sp, #3536]
  404c3c:	5280008a 	mov	w10, #0x4                   	// #4
  404c40:	f906f7e8 	str	x8, [sp, #3560]
  404c44:	b00004e8 	adrp	x8, 4a1000 <_ZN7axalloc16GLOBAL_ALLOCATOR17h04b3423754977f4bE+0x23000>
  404c48:	913ba108 	add	x8, x8, #0xee8
  404c4c:	3937c3e9 	strb	w9, [sp, #3568]
  404c50:	f000018e 	adrp	x14, 437000 <_ZN3log6LOGGER17hab630ad04d1f5aabE.1>
  404c54:	5280002d 	mov	w13, #0x1                   	// #1
  404c58:	d503201f 	nop
  404c5c:	1017cee9 	adr	x9, 434638 <_ZN4core7unicode12unicode_data15grapheme_extend7OFFSETS17h7af8ccc2b809066cE+0x9fc>
  404c60:	c8dffd08 	ldar	x8, [x8]
  404c64:	f91357ea 	str	x10, [sp, #9896]
  404c68:	91400bea 	add	x10, sp, #0x2, lsl #12
  404c6c:	f91367ec 	str	x12, [sp, #9928]
  404c70:	913e814a 	add	x10, x10, #0xfa0
  404c74:	913703ec 	add	x12, sp, #0xdc0
  404c78:	f9136bed 	str	x13, [sp, #9936]
  404c7c:	f100091f 	cmp	x8, #0x2
  404c80:	f91373ed 	str	x13, [sp, #9952]
  404c84:	d503201f 	nop
  404c88:	1017cf0b 	adr	x11, 434668 <_ZN3log6logger3NOP17h11948bda88406911E>
  404c8c:	f9136fea 	str	x10, [sp, #9944]
  404c90:	f94001ca 	ldr	x10, [x14]
  404c94:	f9137bed 	str	x13, [sp, #9968]
  404c98:	d280002d 	mov	x13, #0x1                   	// #1
  404c9c:	5280052e 	mov	w14, #0x29                  	// #41
  404ca0:	f91377ec 	str	x12, [sp, #9960]
  404ca4:	528002ac 	mov	w12, #0x15                  	// #21
  404ca8:	f2c0094d 	movk	x13, #0x4a, lsl #32
  404cac:	9a890148 	csel	x8, x10, x9, eq  // eq = none
  404cb0:	f9135bf4 	str	x20, [sp, #9904]
  404cb4:	91400be1 	add	x1, sp, #0x2, lsl #12
  404cb8:	f9134ff5 	str	x21, [sp, #9880]
  404cbc:	9a8b02c0 	csel	x0, x22, x11, eq  // eq = none
  404cc0:	f91353ee 	str	x14, [sp, #9888]
  404cc4:	9119e021 	add	x1, x1, #0x678
  404cc8:	f9135fec 	str	x12, [sp, #9912]
  404ccc:	f91363ed 	str	x13, [sp, #9920]
  404cd0:	f9401108 	ldr	x8, [x8, #32]
  404cd4:	f9133fff 	str	xzr, [sp, #9848]
  404cd8:	f91343f4 	str	x20, [sp, #9856]
  404cdc:	f91347ec 	str	x12, [sp, #9864]
  404ce0:	f9134bff 	str	xzr, [sp, #9872]
  404ce4:	d63f0100 	blr	x8
  404ce8:	b00004f4 	adrp	x20, 4a1000 <_ZN7axalloc16GLOBAL_ALLOCATOR17h04b3423754977f4bE+0x23000>
  404cec:	913ce294 	add	x20, x20, #0xf38
  404cf0:	08dffe88 	ldarb	w8, [x20]
  404cf4:	7100091f 	cmp	w8, #0x2
  404cf8:	54000080 	b.eq	404d08 <main+0x570>  // b.none
  404cfc:	91400be0 	add	x0, sp, #0x2, lsl #12
  404d00:	913da000 	add	x0, x0, #0xf68
  404d04:	97fff932 	bl	4031cc <_ZN4spin4once17Once$LT$T$C$R$GT$18try_call_once_slow17hd27f34a5bc06dd2cE>
  404d08:	08dffe88 	ldarb	w8, [x20]
  404d0c:	7100091f 	cmp	w8, #0x2
  404d10:	54001921 	b.ne	405034 <main+0x89c>  // b.any
  404d14:	b00004f5 	adrp	x21, 4a1000 <_ZN7axalloc16GLOBAL_ALLOCATOR17h04b3423754977f4bE+0x23000>
  404d18:	f9479ab9 	ldr	x25, [x21, #3888]
  404d1c:	b50002b9 	cbnz	x25, 404d70 <main+0x5d8>
  404d20:	d503201f 	nop
  404d24:	1017cba0 	adr	x0, 434698 <_ZN3log6logger3NOP17h11948bda88406911E+0x30>
  404d28:	d503201f 	nop
  404d2c:	1016c922 	adr	x2, 432650 <etext+0x4650>
  404d30:	52800561 	mov	w1, #0x2b                  	// #43
  404d34:	94008e21 	bl	4285b8 <_ZN4core9panicking5panic17h7622c9da94764cc6E>
  404d38:	d4200020 	brk	#0x1
  404d3c:	52800048 	mov	w8, #0x2                   	// #2
  404d40:	d503201f 	nop
  404d44:	1017d760 	adr	x0, 434830 <_ZN3log6logger3NOP17h11948bda88406911E+0x1c8>
  404d48:	d503201f 	nop
  404d4c:	1014d823 	adr	x3, 42e850 <etext+0x850>
  404d50:	d503201f 	nop
  404d54:	1014da64 	adr	x4, 42e8a0 <etext+0x8a0>
  404d58:	390be308 	strb	w8, [x24, #760]
  404d5c:	91400be2 	add	x2, sp, #0x2, lsl #12
  404d60:	91254042 	add	x2, x2, #0x950
  404d64:	52800561 	mov	w1, #0x2b                  	// #43
  404d68:	9400914a 	bl	429290 <_ZN4core6result13unwrap_failed17h4ccb29953da6c6f0E>
  404d6c:	d4200020 	brk	#0x1
  404d70:	91400be1 	add	x1, sp, #0x2, lsl #12
  404d74:	91002320 	add	x0, x25, #0x8
  404d78:	91254021 	add	x1, x1, #0x950
  404d7c:	5280bc02 	mov	w2, #0x5e0                 	// #1504
  404d80:	f900033f 	str	xzr, [x25]
  404d84:	9400a2f2 	bl	42d94c <memcpy>
  404d88:	91400be1 	add	x1, sp, #0x2, lsl #12
  404d8c:	52800088 	mov	w8, #0x4                   	// #4
  404d90:	9117a720 	add	x0, x25, #0x5e9
  404d94:	913f6021 	add	x1, x1, #0xfd8
  404d98:	528000e2 	mov	w2, #0x7                   	// #7
  404d9c:	3917a328 	strb	w8, [x25, #1512]
  404da0:	9400a2eb 	bl	42d94c <memcpy>
  404da4:	52800108 	mov	w8, #0x8                   	// #8
  404da8:	f902fb3f 	str	xzr, [x25, #1520]
  404dac:	f902ff3f 	str	xzr, [x25, #1528]
  404db0:	f903073f 	str	xzr, [x25, #1544]
  404db4:	f9030328 	str	x8, [x25, #1536]
  404db8:	f9030b3f 	str	xzr, [x25, #1552]
  404dbc:	f9030f3f 	str	xzr, [x25, #1560]
  404dc0:	f903133f 	str	xzr, [x25, #1568]
  404dc4:	08dffe88 	ldarb	w8, [x20]
  404dc8:	7100091f 	cmp	w8, #0x2
  404dcc:	54001341 	b.ne	405034 <main+0x89c>  // b.any
  404dd0:	f9479aa8 	ldr	x8, [x21, #3888]
  404dd4:	b1400519 	adds	x25, x8, #0x1, lsl #12
  404dd8:	54fffa40 	b.eq	404d20 <main+0x588>  // b.none
  404ddc:	91400be1 	add	x1, sp, #0x2, lsl #12
  404de0:	52800028 	mov	w8, #0x1                   	// #1
  404de4:	91002320 	add	x0, x25, #0x8
  404de8:	91254021 	add	x1, x1, #0x950
  404dec:	5280bc02 	mov	w2, #0x5e0                 	// #1504
  404df0:	f9000328 	str	x8, [x25]
  404df4:	9400a2d6 	bl	42d94c <memcpy>
  404df8:	91400be1 	add	x1, sp, #0x2, lsl #12
  404dfc:	52800088 	mov	w8, #0x4                   	// #4
  404e00:	9117a720 	add	x0, x25, #0x5e9
  404e04:	913f6021 	add	x1, x1, #0xfd8
  404e08:	528000e2 	mov	w2, #0x7                   	// #7
  404e0c:	3917a328 	strb	w8, [x25, #1512]
  404e10:	9400a2cf 	bl	42d94c <memcpy>
  404e14:	52800108 	mov	w8, #0x8                   	// #8
  404e18:	f902fb3f 	str	xzr, [x25, #1520]
  404e1c:	f902ff3f 	str	xzr, [x25, #1528]
  404e20:	f903073f 	str	xzr, [x25, #1544]
  404e24:	f9030328 	str	x8, [x25, #1536]
  404e28:	f9030b3f 	str	xzr, [x25, #1552]
  404e2c:	f9030f3f 	str	xzr, [x25, #1560]
  404e30:	f903133f 	str	xzr, [x25, #1568]
  404e34:	08dffe88 	ldarb	w8, [x20]
  404e38:	7100091f 	cmp	w8, #0x2
  404e3c:	540010a1 	b.ne	405050 <main+0x8b8>  // b.any
  404e40:	f9479aa8 	ldr	x8, [x21, #3888]
  404e44:	b00004ea 	adrp	x10, 4a1000 <_ZN7axalloc16GLOBAL_ALLOCATOR17h04b3423754977f4bE+0x23000>
  404e48:	913d014a 	add	x10, x10, #0xf40
  404e4c:	c85f7d49 	ldxr	x9, [x10]
  404e50:	9100052b 	add	x11, x9, #0x1
  404e54:	c80c7d4b 	stxr	w12, x11, [x10]
  404e58:	35ffffac 	cbnz	w12, 404e4c <main+0x6b4>
  404e5c:	b00004ea 	adrp	x10, 4a1000 <_ZN7axalloc16GLOBAL_ALLOCATOR17h04b3423754977f4bE+0x23000>
  404e60:	913d214a 	add	x10, x10, #0xf48
  404e64:	c8dffd4b 	ldar	x11, [x10]
  404e68:	eb09017f 	cmp	x11, x9
  404e6c:	540000a0 	b.eq	404e80 <main+0x6e8>  // b.none
  404e70:	d5033fdf 	isb
  404e74:	c8dffd4b 	ldar	x11, [x10]
  404e78:	eb09017f 	cmp	x11, x9
  404e7c:	54ffffa1 	b.ne	404e70 <main+0x6d8>  // b.any
  404e80:	91000529 	add	x9, x9, #0x1
  404e84:	f9000548 	str	x8, [x10, #8]
  404e88:	c89ffd49 	stlr	x9, [x10]
  404e8c:	f9477ee8 	ldr	x8, [x23, #3832]
  404e90:	f100111f 	cmp	x8, #0x4
  404e94:	1a9f07e8 	cset	w8, ne  // ne = any
  404e98:	5a9f9108 	csinv	w8, w8, wzr, ls  // ls = plast
  404e9c:	34000088 	cbz	w8, 404eac <main+0x714>
  404ea0:	12001d08 	and	w8, w8, #0xff
  404ea4:	7103fd1f 	cmp	w8, #0xff
  404ea8:	54000581 	b.ne	404f58 <main+0x7c0>  // b.any
  404eac:	b00004e8 	adrp	x8, 4a1000 <_ZN7axalloc16GLOBAL_ALLOCATOR17h04b3423754977f4bE+0x23000>
  404eb0:	913ba108 	add	x8, x8, #0xee8
  404eb4:	5280008a 	mov	w10, #0x4                   	// #4
  404eb8:	f000018d 	adrp	x13, 437000 <_ZN3log6LOGGER17hab630ad04d1f5aabE.1>
  404ebc:	d503201f 	nop
  404ec0:	1014c40e 	adr	x14, 42e740 <etext+0x740>
  404ec4:	c8dffd08 	ldar	x8, [x8]
  404ec8:	d503201f 	nop
  404ecc:	1017bb69 	adr	x9, 434638 <_ZN4core7unicode12unicode_data15grapheme_extend7OFFSETS17h7af8ccc2b809066cE+0x9fc>
  404ed0:	f914c3ea 	str	x10, [sp, #10624]
  404ed4:	5280002a 	mov	w10, #0x1                   	// #1
  404ed8:	d503201f 	nop
  404edc:	1014c12c 	adr	x12, 42e700 <etext+0x700>
  404ee0:	f914d3ee 	str	x14, [sp, #10656]
  404ee4:	d503201f 	nop
  404ee8:	3014c10e 	adr	x14, 42e709 <etext+0x709>
  404eec:	f914d7ea 	str	x10, [sp, #10664]
  404ef0:	f94001aa 	ldr	x10, [x13]
  404ef4:	5280026d 	mov	w13, #0x13                  	// #19
  404ef8:	5280012f 	mov	w15, #0x9                   	// #9
  404efc:	f100091f 	cmp	x8, #0x2
  404f00:	d503201f 	nop
  404f04:	1017bb2b 	adr	x11, 434668 <_ZN3log6logger3NOP17h11948bda88406911E>
  404f08:	9a890148 	csel	x8, x10, x9, eq  // eq = none
  404f0c:	f914bfed 	str	x13, [sp, #10616]
  404f10:	d280002d 	mov	x13, #0x1                   	// #1
  404f14:	f2c009ad 	movk	x13, #0x4d, lsl #32
  404f18:	f914c7ec 	str	x12, [sp, #10632]
  404f1c:	f914dbf6 	str	x22, [sp, #10672]
  404f20:	91400be1 	add	x1, sp, #0x2, lsl #12
  404f24:	f914dfff 	str	xzr, [sp, #10680]
  404f28:	9a8b02c0 	csel	x0, x22, x11, eq  // eq = none
  404f2c:	f914bbee 	str	x14, [sp, #10608]
  404f30:	91254021 	add	x1, x1, #0x950
  404f34:	f914e3ff 	str	xzr, [sp, #10688]
  404f38:	f914cbef 	str	x15, [sp, #10640]
  404f3c:	f914cfed 	str	x13, [sp, #10648]
  404f40:	f9401108 	ldr	x8, [x8, #32]
  404f44:	f914abff 	str	xzr, [sp, #10576]
  404f48:	f914afec 	str	x12, [sp, #10584]
  404f4c:	f914b3ef 	str	x15, [sp, #10592]
  404f50:	f914b7ff 	str	xzr, [sp, #10600]
  404f54:	d63f0100 	blr	x8
  404f58:	08dffe88 	ldarb	w8, [x20]
  404f5c:	7100091f 	cmp	w8, #0x2
  404f60:	540006a1 	b.ne	405034 <main+0x89c>  // b.any
  404f64:	f9479aa8 	ldr	x8, [x21, #3888]
  404f68:	ab133113 	adds	x19, x8, x19, lsl #12
  404f6c:	54ffeda0 	b.eq	404d20 <main+0x588>  // b.none
  404f70:	91400be0 	add	x0, sp, #0x2, lsl #12
  404f74:	d53b4234 	mrs	x20, daif
  404f78:	d50342df 	msr	daifset, #0x2
  404f7c:	91254000 	add	x0, x0, #0x950
  404f80:	52800021 	mov	w1, #0x1                   	// #1
  404f84:	94000e3b 	bl	408870 <_ZN92_$LT$allocator..bitmap..BitmapPageAllocator$LT$_$GT$$u20$as$u20$allocator..PageAllocator$GT$11alloc_pages17hc2599d2b3a79021dE>
  404f88:	d51b4234 	msr	daif, x20
  404f8c:	394be308 	ldrb	w8, [x24, #760]
  404f90:	350006e8 	cbnz	w8, 40506c <main+0x8d4>
  404f94:	f954aff4 	ldr	x20, [sp, #10584]
  404f98:	2a1f03e1 	mov	w1, wzr
  404f9c:	52820002 	mov	w2, #0x1000                	// #4096
  404fa0:	aa1403e0 	mov	x0, x20
  404fa4:	9400a143 	bl	42d4b0 <memset>
  404fa8:	b00004f9 	adrp	x25, 4a1000 <_ZN7axalloc16GLOBAL_ALLOCATOR17h04b3423754977f4bE+0x23000>
  404fac:	91400be0 	add	x0, sp, #0x2, lsl #12
  404fb0:	91254000 	add	x0, x0, #0x950
  404fb4:	52800101 	mov	w1, #0x8                   	// #8
  404fb8:	52800102 	mov	w2, #0x8                   	// #8
  404fbc:	397b333f 	ldrb	wzr, [x25, #3788]
  404fc0:	94000d0d 	bl	4083f4 <_ZN7axalloc15GlobalAllocator5alloc17h8f644e423ee6a768E>
  404fc4:	394be308 	ldrb	w8, [x24, #760]
  404fc8:	35000b08 	cbnz	w8, 405128 <main+0x990>
  404fcc:	f954aff5 	ldr	x21, [sp, #10584]
  404fd0:	f90002b4 	str	x20, [x21]
  404fd4:	37600654 	tbnz	w20, #12, 40509c <main+0x904>
  404fd8:	91400be0 	add	x0, sp, #0x2, lsl #12
  404fdc:	52800028 	mov	w8, #0x1                   	// #1
  404fe0:	d503201f 	nop
  404fe4:	101980f9 	adr	x25, 438000 <_ZN9arceos_hv10NIMBOS_DTB17habe9c3a520f0d333E>
  404fe8:	52800509 	mov	w9, #0x28                  	// #40
  404fec:	91254000 	add	x0, x0, #0x950
  404ff0:	913703e1 	add	x1, sp, #0xdc0
  404ff4:	f9132ff5 	str	x21, [sp, #9816]
  404ff8:	f91333e8 	str	x8, [sp, #9824]
  404ffc:	f91337e8 	str	x8, [sp, #9832]
  405000:	f9133bf4 	str	x20, [sp, #9840]
  405004:	f906e3f9 	str	x25, [sp, #3520]
  405008:	f906e7e9 	str	x9, [sp, #3528]
  40500c:	94009a85 	bl	42ba20 <_ZN3fdt9FdtHeader10from_bytes17h5066f543f73c8c89E>
  405010:	b96953e8 	ldr	w8, [sp, #10576]
  405014:	35000908 	cbnz	w8, 405134 <main+0x99c>
  405018:	d503201f 	nop
  40501c:	1017b3e0 	adr	x0, 434698 <_ZN3log6logger3NOP17h11948bda88406911E+0x30>
  405020:	d503201f 	nop
  405024:	10179222 	adr	x2, 434268 <_ZN4core7unicode12unicode_data15grapheme_extend7OFFSETS17h7af8ccc2b809066cE+0x62c>
  405028:	52800561 	mov	w1, #0x2b                  	// #43
  40502c:	94008d63 	bl	4285b8 <_ZN4core9panicking5panic17h7622c9da94764cc6E>
  405030:	d4200020 	brk	#0x1
  405034:	d503201f 	nop
  405038:	1017b300 	adr	x0, 434698 <_ZN3log6logger3NOP17h11948bda88406911E+0x30>
  40503c:	d503201f 	nop
  405040:	1016afc2 	adr	x2, 432638 <etext+0x4638>
  405044:	52800561 	mov	w1, #0x2b                  	// #43
  405048:	94008d5c 	bl	4285b8 <_ZN4core9panicking5panic17h7622c9da94764cc6E>
  40504c:	d4200020 	brk	#0x1
  405050:	d503201f 	nop
  405054:	1017b220 	adr	x0, 434698 <_ZN3log6logger3NOP17h11948bda88406911E+0x30>
  405058:	d503201f 	nop
  40505c:	10148f22 	adr	x2, 42e240 <etext+0x240>
  405060:	52800561 	mov	w1, #0x2b                  	// #43
  405064:	94008d55 	bl	4285b8 <_ZN4core9panicking5panic17h7622c9da94764cc6E>
  405068:	d4200020 	brk	#0x1
  40506c:	390be31f 	strb	wzr, [x24, #760]
  405070:	d503201f 	nop
  405074:	1017bde0 	adr	x0, 434830 <_ZN3log6logger3NOP17h11948bda88406911E+0x1c8>
  405078:	d503201f 	nop
  40507c:	10163e63 	adr	x3, 431848 <etext+0x3848>
  405080:	d503201f 	nop
  405084:	10164024 	adr	x4, 431888 <etext+0x3888>
  405088:	91400be2 	add	x2, sp, #0x2, lsl #12
  40508c:	91254042 	add	x2, x2, #0x950
  405090:	52800561 	mov	w1, #0x2b                  	// #43
  405094:	9400907f 	bl	429290 <_ZN4core6result13unwrap_failed17h4ccb29953da6c6f0E>
  405098:	d4200020 	brk	#0x1
  40509c:	91400be0 	add	x0, sp, #0x2, lsl #12
  4050a0:	d53b4234 	mrs	x20, daif
  4050a4:	d50342df 	msr	daifset, #0x2
  4050a8:	91254000 	add	x0, x0, #0x950
  4050ac:	52800021 	mov	w1, #0x1                   	// #1
  4050b0:	94000df0 	bl	408870 <_ZN92_$LT$allocator..bitmap..BitmapPageAllocator$LT$_$GT$$u20$as$u20$allocator..PageAllocator$GT$11alloc_pages17hc2599d2b3a79021dE>
  4050b4:	d51b4234 	msr	daif, x20
  4050b8:	394be308 	ldrb	w8, [x24, #760]
  4050bc:	35000588 	cbnz	w8, 40516c <main+0x9d4>
  4050c0:	f954aff4 	ldr	x20, [sp, #10584]
  4050c4:	2a1f03e1 	mov	w1, wzr
  4050c8:	52820002 	mov	w2, #0x1000                	// #4096
  4050cc:	aa1403e0 	mov	x0, x20
  4050d0:	9400a0f8 	bl	42d4b0 <memset>
  4050d4:	91400be0 	add	x0, sp, #0x2, lsl #12
  4050d8:	52800101 	mov	w1, #0x8                   	// #8
  4050dc:	91254000 	add	x0, x0, #0x950
  4050e0:	52800102 	mov	w2, #0x8                   	// #8
  4050e4:	397b333f 	ldrb	wzr, [x25, #3788]
  4050e8:	94000cc3 	bl	4083f4 <_ZN7axalloc15GlobalAllocator5alloc17h8f644e423ee6a768E>
  4050ec:	394be308 	ldrb	w8, [x24, #760]
  4050f0:	350001c8 	cbnz	w8, 405128 <main+0x990>
  4050f4:	f954aff9 	ldr	x25, [sp, #10584]
  4050f8:	f9000334 	str	x20, [x25]
  4050fc:	f94002a0 	ldr	x0, [x21]
  405100:	94001050 	bl	409240 <_ZN68_$LT$axhal..paging..PagingIfImpl$u20$as$u20$page_table..PagingIf$GT$13dealloc_frame17hd53d8a39188437b3E>
  405104:	d53b423a 	mrs	x26, daif
  405108:	d50342df 	msr	daifset, #0x2
  40510c:	aa1503e0 	mov	x0, x21
  405110:	52800101 	mov	w1, #0x8                   	// #8
  405114:	52800102 	mov	w2, #0x8                   	// #8
  405118:	97fff906 	bl	403530 <_ZN79_$LT$allocator..tlsf..TlsfByteAllocator$u20$as$u20$allocator..ByteAllocator$GT$7dealloc17ha19d402839ba8d1fE>
  40511c:	d51b423a 	msr	daif, x26
  405120:	aa1903f5 	mov	x21, x25
  405124:	17ffffad 	b	404fd8 <main+0x840>
  405128:	52800100 	mov	w0, #0x8                   	// #8
  40512c:	94009dd3 	bl	42c878 <__rust_alloc_error_handler>
  405130:	d4200020 	brk	#0x1
  405134:	91400be0 	add	x0, sp, #0x2, lsl #12
  405138:	91400be1 	add	x1, sp, #0x2, lsl #12
  40513c:	b9695bf5 	ldr	w21, [sp, #10584]
  405140:	91254000 	add	x0, x0, #0x950
  405144:	913e8021 	add	x1, x1, #0xfa0
  405148:	91400bfb 	add	x27, sp, #0x2, lsl #12
  40514c:	f917d3f9 	str	x25, [sp, #12192]
  405150:	9125437b 	add	x27, x27, #0x950
  405154:	f917d7f5 	str	x21, [sp, #12200]
  405158:	94009a32 	bl	42ba20 <_ZN3fdt9FdtHeader10from_bytes17h5066f543f73c8c89E>
  40515c:	b96953e8 	ldr	w8, [sp, #10576]
  405160:	35000328 	cbnz	w8, 4051c4 <main+0xa2c>
  405164:	52800048 	mov	w8, #0x2                   	// #2
  405168:	1400002b 	b	405214 <main+0xa7c>
  40516c:	f94002a0 	ldr	x0, [x21]
  405170:	94001034 	bl	409240 <_ZN68_$LT$axhal..paging..PagingIfImpl$u20$as$u20$page_table..PagingIf$GT$13dealloc_frame17hd53d8a39188437b3E>
  405174:	d53b4233 	mrs	x19, daif
  405178:	d50342df 	msr	daifset, #0x2
  40517c:	aa1503e0 	mov	x0, x21
  405180:	52800101 	mov	w1, #0x8                   	// #8
  405184:	52800102 	mov	w2, #0x8                   	// #8
  405188:	97fff8ea 	bl	403530 <_ZN79_$LT$allocator..tlsf..TlsfByteAllocator$u20$as$u20$allocator..ByteAllocator$GT$7dealloc17ha19d402839ba8d1fE>
  40518c:	d51b4233 	msr	daif, x19
  405190:	52800055 	mov	w21, #0x2                   	// #2
  405194:	d503201f 	nop
  405198:	1017b4c0 	adr	x0, 434830 <_ZN3log6logger3NOP17h11948bda88406911E+0x1c8>
  40519c:	d503201f 	nop
  4051a0:	1014b583 	adr	x3, 42e850 <etext+0x850>
  4051a4:	d503201f 	nop
  4051a8:	1014b704 	adr	x4, 42e888 <etext+0x888>
  4051ac:	39008315 	strb	w21, [x24, #32]
  4051b0:	91400be2 	add	x2, sp, #0x2, lsl #12
  4051b4:	9119e042 	add	x2, x2, #0x678
  4051b8:	52800561 	mov	w1, #0x2b                  	// #43
  4051bc:	94009035 	bl	429290 <_ZN4core6result13unwrap_failed17h4ccb29953da6c6f0E>
  4051c0:	d4200020 	brk	#0x1
  4051c4:	91003361 	add	x1, x27, #0xc
  4051c8:	913703e0 	add	x0, sp, #0xdc0
  4051cc:	52800402 	mov	w2, #0x20                  	// #32
  4051d0:	b96957fc 	ldr	w28, [sp, #10580]
  4051d4:	b9695bfa 	ldr	w26, [sp, #10584]
  4051d8:	aa1603f4 	mov	x20, x22
  4051dc:	91400bf8 	add	x24, sp, #0x2, lsl #12
  4051e0:	529fddb6 	mov	w22, #0xfeed                	// #65261
  4051e4:	91196318 	add	x24, x24, #0x658
  4051e8:	72ba01b6 	movk	w22, #0xd00d, lsl #16
  4051ec:	9400a1d8 	bl	42d94c <memcpy>
  4051f0:	6b16039f 	cmp	w28, w22
  4051f4:	540000a1 	b.ne	405208 <main+0xa70>  // b.any
  4051f8:	6b15035f 	cmp	w26, w21
  4051fc:	54000249 	b.ls	405244 <main+0xaac>  // b.plast
  405200:	52800048 	mov	w8, #0x2                   	// #2
  405204:	14000002 	b	40520c <main+0xa74>
  405208:	2a1f03e8 	mov	w8, wzr
  40520c:	91400bf8 	add	x24, sp, #0x2, lsl #12
  405210:	91196318 	add	x24, x24, #0x658
  405214:	390be308 	strb	w8, [x24, #760]
  405218:	d503201f 	nop
  40521c:	1017b0a0 	adr	x0, 434830 <_ZN3log6logger3NOP17h11948bda88406911E+0x1c8>
  405220:	d503201f 	nop
  405224:	1014e1a3 	adr	x3, 42ee58 <etext+0xe58>
  405228:	d503201f 	nop
  40522c:	1014e264 	adr	x4, 42ee78 <etext+0xe78>
  405230:	91400be2 	add	x2, sp, #0x2, lsl #12
  405234:	91254042 	add	x2, x2, #0x950
  405238:	52800561 	mov	w1, #0x2b                  	// #43
  40523c:	94009015 	bl	429290 <_ZN4core6result13unwrap_failed17h4ccb29953da6c6f0E>
  405240:	d4200020 	brk	#0x1
  405244:	92785eaa 	and	x10, x21, #0xffffff00
  405248:	12001eac 	and	w12, w21, #0xff
  40524c:	91400be0 	add	x0, sp, #0x2, lsl #12
  405250:	91400be1 	add	x1, sp, #0x2, lsl #12
  405254:	f946e7e8 	ldr	x8, [sp, #3528]
  405258:	aa0c014a 	orr	x10, x10, x12
  40525c:	f946e3e9 	ldr	x9, [sp, #3520]
  405260:	d503201f 	nop
  405264:	3017b282 	adr	x2, 4348b5 <_ZN3log6logger3NOP17h11948bda88406911E+0x24d>
  405268:	f946ebeb 	ldr	x11, [sp, #3536]
  40526c:	f946efed 	ldr	x13, [sp, #3544]
  405270:	91254000 	add	x0, x0, #0x950
  405274:	913cc021 	add	x1, x1, #0xf30
  405278:	528000e3 	mov	w3, #0x7                   	// #7
  40527c:	f914afe8 	str	x8, [sp, #10584]
  405280:	f914b3eb 	str	x11, [sp, #10592]
  405284:	f9179bf9 	str	x25, [sp, #12080]
  405288:	f9179fea 	str	x10, [sp, #12088]
  40528c:	b92f43f6 	str	w22, [sp, #12096]
  405290:	b92f47fa 	str	w26, [sp, #12100]
  405294:	f917b3ed 	str	x13, [sp, #12128]
  405298:	f917afeb 	str	x11, [sp, #12120]
  40529c:	f917abe8 	str	x8, [sp, #12112]
  4052a0:	f917a7e9 	str	x9, [sp, #12104]
  4052a4:	94009aa0 	bl	42bd24 <_ZN3fdt3Fdt9find_node17hacfb86d9ea324da2E>
  4052a8:	f954abe8 	ldr	x8, [sp, #10576]
  4052ac:	b5000108 	cbnz	x8, 4052cc <main+0xb34>
  4052b0:	d503201f 	nop
  4052b4:	10177e60 	adr	x0, 434280 <_ZN4core7unicode12unicode_data15grapheme_extend7OFFSETS17h7af8ccc2b809066cE+0x644>
  4052b8:	d503201f 	nop
  4052bc:	10177ee2 	adr	x2, 434298 <_ZN4core7unicode12unicode_data15grapheme_extend7OFFSETS17h7af8ccc2b809066cE+0x65c>
  4052c0:	52800281 	mov	w1, #0x14                  	// #20
  4052c4:	94009094 	bl	429514 <_ZN4core6option13expect_failed17h93cfb0d412ad27a8E>
  4052c8:	d4200020 	brk	#0x1
  4052cc:	91400be0 	add	x0, sp, #0x2, lsl #12
  4052d0:	91400be1 	add	x1, sp, #0x2, lsl #12
  4052d4:	913da000 	add	x0, x0, #0xf68
  4052d8:	91254021 	add	x1, x1, #0x950
  4052dc:	52800702 	mov	w2, #0x38                  	// #56
  4052e0:	91400bf9 	add	x25, sp, #0x2, lsl #12
  4052e4:	91254339 	add	x25, x25, #0x950
  4052e8:	9400a199 	bl	42d94c <memcpy>
  4052ec:	91400be1 	add	x1, sp, #0x2, lsl #12
  4052f0:	913703e0 	add	x0, sp, #0xdc0
  4052f4:	913da021 	add	x1, x1, #0xf68
  4052f8:	b92bc3ff 	str	wzr, [sp, #11200]
  4052fc:	b92bfbff 	str	wzr, [sp, #11256]
  405300:	b92c23ff 	str	wzr, [sp, #11296]
  405304:	f914dbff 	str	xzr, [sp, #10672]
  405308:	f914dfff 	str	xzr, [sp, #10680]
  40530c:	f914abff 	str	xzr, [sp, #10576]
  405310:	f914b7ff 	str	xzr, [sp, #10600]
  405314:	f914c3ff 	str	xzr, [sp, #10624]
  405318:	f914cfff 	str	xzr, [sp, #10648]
  40531c:	94009644 	bl	42ac2c <_ZN3fdt4node7FdtNode3reg17hdeead877dd426ac5E>
  405320:	f946e3ea 	ldr	x10, [sp, #3520]
  405324:	b500010a 	cbnz	x10, 405344 <main+0xbac>
  405328:	d503201f 	nop
  40532c:	10179b60 	adr	x0, 434698 <_ZN3log6logger3NOP17h11948bda88406911E+0x30>
  405330:	d503201f 	nop
  405334:	10178a22 	adr	x2, 434478 <_ZN4core7unicode12unicode_data15grapheme_extend7OFFSETS17h7af8ccc2b809066cE+0x83c>
  405338:	52800561 	mov	w1, #0x2b                  	// #43
  40533c:	94008c9f 	bl	4285b8 <_ZN4core9panicking5panic17h7622c9da94764cc6E>
  405340:	d4200020 	brk	#0x1
  405344:	91400be8 	add	x8, sp, #0x2, lsl #12
  405348:	9101c336 	add	x22, x25, #0x70
  40534c:	91196108 	add	x8, x8, #0x658
  405350:	f946e7ec 	ldr	x12, [sp, #3528]
  405354:	9100251a 	add	x26, x8, #0x9
  405358:	9109e335 	add	x21, x25, #0x278
  40535c:	f946ebe9 	ldr	x9, [sp, #3536]
  405360:	910ac339 	add	x25, x25, #0x2b0
  405364:	f946efe8 	ldr	x8, [sp, #3544]
  405368:	1400000f 	b	4053a4 <main+0xc0c>
  40536c:	f100118c 	subs	x12, x12, #0x4
  405370:	54000b23 	b.cc	4054d4 <main+0xd3c>  // b.lo, b.ul, b.last
  405374:	3940094f 	ldrb	w15, [x10, #2]
  405378:	3940054d 	ldrb	w13, [x10, #1]
  40537c:	3940014e 	ldrb	w14, [x10]
  405380:	39400d50 	ldrb	w16, [x10, #3]
  405384:	53103def 	lsl	w15, w15, #16
  405388:	9100114a 	add	x10, x10, #0x4
  40538c:	2a0d21cd 	orr	w13, w14, w13, lsl #8
  405390:	2a1061ee 	orr	w14, w15, w16, lsl #24
  405394:	2a0d01cd 	orr	w13, w14, w13
  405398:	5ac009ad 	rev	w13, w13
  40539c:	f914dbeb 	str	x11, [sp, #10672]
  4053a0:	f914dfed 	str	x13, [sp, #10680]
  4053a4:	f100093f 	cmp	x9, #0x2
  4053a8:	54000240 	b.eq	4053f0 <main+0xc58>  // b.none
  4053ac:	f100053f 	cmp	x9, #0x1
  4053b0:	54000921 	b.ne	4054d4 <main+0xd3c>  // b.any
  4053b4:	f100118c 	subs	x12, x12, #0x4
  4053b8:	540008e3 	b.cc	4054d4 <main+0xd3c>  // b.lo, b.ul, b.last
  4053bc:	3940094e 	ldrb	w14, [x10, #2]
  4053c0:	3940054b 	ldrb	w11, [x10, #1]
  4053c4:	3940014d 	ldrb	w13, [x10]
  4053c8:	39400d4f 	ldrb	w15, [x10, #3]
  4053cc:	53103dce 	lsl	w14, w14, #16
  4053d0:	9100114a 	add	x10, x10, #0x4
  4053d4:	2a0b21ab 	orr	w11, w13, w11, lsl #8
  4053d8:	2a0f61cd 	orr	w13, w14, w15, lsl #24
  4053dc:	2a0b01ab 	orr	w11, w13, w11
